
projekt01.elf:     file format elf32-avr

Sections:
Idx Name          Size      VMA       LMA       File off  Algn
  0 .data         00000038  00800100  00001154  000011e8  2**0
                  CONTENTS, ALLOC, LOAD, DATA
  1 .text         00001154  00000000  00000000  00000094  2**1
                  CONTENTS, ALLOC, LOAD, READONLY, CODE
  2 .bss          00000068  00800138  00800138  00001220  2**0
                  ALLOC
  3 .comment      00000030  00000000  00000000  00001220  2**0
                  CONTENTS, READONLY
  4 .note.gnu.avr.deviceinfo 0000003c  00000000  00000000  00001250  2**2
                  CONTENTS, READONLY
  5 .debug_aranges 000000c0  00000000  00000000  0000128c  2**0
                  CONTENTS, READONLY, DEBUGGING
  6 .debug_info   00000e22  00000000  00000000  0000134c  2**0
                  CONTENTS, READONLY, DEBUGGING
  7 .debug_abbrev 00000381  00000000  00000000  0000216e  2**0
                  CONTENTS, READONLY, DEBUGGING
  8 .debug_line   00000d3b  00000000  00000000  000024ef  2**0
                  CONTENTS, READONLY, DEBUGGING
  9 .debug_frame  000001c8  00000000  00000000  0000322c  2**2
                  CONTENTS, READONLY, DEBUGGING
 10 .debug_str    00011533  00000000  00000000  000033f4  2**0
                  CONTENTS, READONLY, DEBUGGING
 11 .debug_loc    00000516  00000000  00000000  00014927  2**0
                  CONTENTS, READONLY, DEBUGGING
 12 .debug_ranges 000000a0  00000000  00000000  00014e3d  2**0
                  CONTENTS, READONLY, DEBUGGING
 13 .debug_macro  000007da  00000000  00000000  00014edd  2**0
                  CONTENTS, READONLY, DEBUGGING

Disassembly of section .text:

00000000 <__vectors>:
       0:	c2 c0       	rjmp	.+388    	; 0x186 <__ctors_end>
       2:	00 00       	nop
       4:	dd c0       	rjmp	.+442    	; 0x1c0 <__bad_interrupt>
       6:	00 00       	nop
       8:	db c0       	rjmp	.+438    	; 0x1c0 <__bad_interrupt>
       a:	00 00       	nop
       c:	d9 c0       	rjmp	.+434    	; 0x1c0 <__bad_interrupt>
       e:	00 00       	nop
      10:	d7 c0       	rjmp	.+430    	; 0x1c0 <__bad_interrupt>
      12:	00 00       	nop
      14:	d5 c0       	rjmp	.+426    	; 0x1c0 <__bad_interrupt>
      16:	00 00       	nop
      18:	d3 c0       	rjmp	.+422    	; 0x1c0 <__bad_interrupt>
      1a:	00 00       	nop
      1c:	d1 c0       	rjmp	.+418    	; 0x1c0 <__bad_interrupt>
      1e:	00 00       	nop
      20:	cf c0       	rjmp	.+414    	; 0x1c0 <__bad_interrupt>
      22:	00 00       	nop
      24:	cd c0       	rjmp	.+410    	; 0x1c0 <__bad_interrupt>
      26:	00 00       	nop
      28:	dd c3       	rjmp	.+1978   	; 0x7e4 <__vector_10>
      2a:	00 00       	nop
      2c:	c9 c0       	rjmp	.+402    	; 0x1c0 <__bad_interrupt>
      2e:	00 00       	nop
      30:	ee c3       	rjmp	.+2012   	; 0x80e <__vector_12>
      32:	00 00       	nop
      34:	c5 c0       	rjmp	.+394    	; 0x1c0 <__bad_interrupt>
      36:	00 00       	nop
      38:	c3 c0       	rjmp	.+390    	; 0x1c0 <__bad_interrupt>
      3a:	00 00       	nop
      3c:	c1 c0       	rjmp	.+386    	; 0x1c0 <__bad_interrupt>
      3e:	00 00       	nop
      40:	a8 c3       	rjmp	.+1872   	; 0x792 <__vector_16>
      42:	00 00       	nop
      44:	bd c0       	rjmp	.+378    	; 0x1c0 <__bad_interrupt>
      46:	00 00       	nop
      48:	bb c0       	rjmp	.+374    	; 0x1c0 <__bad_interrupt>
      4a:	00 00       	nop
      4c:	b9 c0       	rjmp	.+370    	; 0x1c0 <__bad_interrupt>
      4e:	00 00       	nop
      50:	b7 c0       	rjmp	.+366    	; 0x1c0 <__bad_interrupt>
      52:	00 00       	nop
      54:	b5 c0       	rjmp	.+362    	; 0x1c0 <__bad_interrupt>
      56:	00 00       	nop
      58:	b3 c0       	rjmp	.+358    	; 0x1c0 <__bad_interrupt>
      5a:	00 00       	nop
      5c:	b1 c0       	rjmp	.+354    	; 0x1c0 <__bad_interrupt>
      5e:	00 00       	nop
      60:	af c0       	rjmp	.+350    	; 0x1c0 <__bad_interrupt>
      62:	00 00       	nop
      64:	ad c0       	rjmp	.+346    	; 0x1c0 <__bad_interrupt>
      66:	00 00       	nop
      68:	ab c0       	rjmp	.+342    	; 0x1c0 <__bad_interrupt>
      6a:	00 00       	nop
      6c:	a9 c0       	rjmp	.+338    	; 0x1c0 <__bad_interrupt>
      6e:	00 00       	nop
      70:	a7 c0       	rjmp	.+334    	; 0x1c0 <__bad_interrupt>
      72:	00 00       	nop
      74:	a5 c0       	rjmp	.+330    	; 0x1c0 <__bad_interrupt>
      76:	00 00       	nop
      78:	a3 c0       	rjmp	.+326    	; 0x1c0 <__bad_interrupt>
      7a:	00 00       	nop
      7c:	a1 c0       	rjmp	.+322    	; 0x1c0 <__bad_interrupt>
      7e:	00 00       	nop
      80:	9f c0       	rjmp	.+318    	; 0x1c0 <__bad_interrupt>
      82:	00 00       	nop
      84:	9d c0       	rjmp	.+314    	; 0x1c0 <__bad_interrupt>
      86:	00 00       	nop
      88:	9b c0       	rjmp	.+310    	; 0x1c0 <__bad_interrupt>
	...

0000008c <__trampolines_end>:
      8c:	00 40       	sbci	r16, 0x00	; 0
      8e:	7a 10       	cpse	r7, r10
      90:	f3 5a       	subi	r31, 0xA3	; 163
      92:	00 a0       	ldd	r0, Z+32	; 0x20
      94:	72 4e       	sbci	r23, 0xE2	; 226
      96:	18 09       	sbc	r17, r8
      98:	00 10       	cpse	r0, r0
      9a:	a5 d4       	rcall	.+2378   	; 0x9e6 <__floatsisf+0x30>
      9c:	e8 00       	.word	0x00e8	; ????
      9e:	00 e8       	ldi	r16, 0x80	; 128
      a0:	76 48       	sbci	r23, 0x86	; 134
      a2:	17 00       	.word	0x0017	; ????
      a4:	00 e4       	ldi	r16, 0x40	; 64
      a6:	0b 54       	subi	r16, 0x4B	; 75
      a8:	02 00       	.word	0x0002	; ????
      aa:	00 ca       	rjmp	.-3072   	; 0xfffff4ac <__eeprom_end+0xff7ef4ac>
      ac:	9a 3b       	cpi	r25, 0xBA	; 186
      ae:	00 00       	nop
      b0:	00 e1       	ldi	r16, 0x10	; 16
      b2:	f5 05       	cpc	r31, r5
      b4:	00 00       	nop
      b6:	80 96       	adiw	r24, 0x20	; 32
      b8:	98 00       	.word	0x0098	; ????
      ba:	00 00       	nop
      bc:	40 42       	sbci	r20, 0x20	; 32
      be:	0f 00       	.word	0x000f	; ????
      c0:	00 00       	nop
      c2:	a0 86       	std	Z+8, r10	; 0x08
      c4:	01 00       	.word	0x0001	; ????
      c6:	00 00       	nop
      c8:	10 27       	eor	r17, r16
      ca:	00 00       	nop
      cc:	00 00       	nop
      ce:	e8 03       	fmulsu	r22, r16
      d0:	00 00       	nop
      d2:	00 00       	nop
      d4:	64 00       	.word	0x0064	; ????
      d6:	00 00       	nop
      d8:	00 00       	nop
      da:	0a 00       	.word	0x000a	; ????
      dc:	00 00       	nop
      de:	00 00       	nop
      e0:	01 00       	.word	0x0001	; ????
      e2:	00 00       	nop
      e4:	00 00       	nop
      e6:	2c 76       	andi	r18, 0x6C	; 108
      e8:	d8 88       	ldd	r13, Y+16	; 0x10
      ea:	dc 67       	ori	r29, 0x7C	; 124
      ec:	4f 08       	sbc	r4, r15
      ee:	23 df       	rcall	.-442    	; 0xffffff36 <__eeprom_end+0xff7eff36>
      f0:	c1 df       	rcall	.-126    	; 0x74 <__SREG__+0x35>
      f2:	ae 59       	subi	r26, 0x9E	; 158
      f4:	e1 b1       	in	r30, 0x01	; 1
      f6:	b7 96       	adiw	r30, 0x27	; 39
      f8:	e5 e3       	ldi	r30, 0x35	; 53
      fa:	e4 53       	subi	r30, 0x34	; 52
      fc:	c6 3a       	cpi	r28, 0xA6	; 166
      fe:	e6 51       	subi	r30, 0x16	; 22
     100:	99 76       	andi	r25, 0x69	; 105
     102:	96 e8       	ldi	r25, 0x86	; 134
     104:	e6 c2       	rjmp	.+1484   	; 0x6d2 <main+0x2e8>
     106:	84 26       	eor	r8, r20
     108:	eb 89       	ldd	r30, Y+19	; 0x13
     10a:	8c 9b       	sbis	0x11, 4	; 17
     10c:	62 ed       	ldi	r22, 0xD2	; 210
     10e:	40 7c       	andi	r20, 0xC0	; 192
     110:	6f fc       	.word	0xfc6f	; ????
     112:	ef bc       	out	0x2f, r14	; 47
     114:	9c 9f       	mul	r25, r28
     116:	40 f2       	brcs	.-112    	; 0xa8 <__trampolines_end+0x1c>
     118:	ba a5       	ldd	r27, Y+42	; 0x2a
     11a:	6f a5       	ldd	r22, Y+47	; 0x2f
     11c:	f4 90       	lpm	r15, Z
     11e:	05 5a       	subi	r16, 0xA5	; 165
     120:	2a f7       	brpl	.-54     	; 0xec <__trampolines_end+0x60>
     122:	5c 93       	st	X, r21
     124:	6b 6c       	ori	r22, 0xCB	; 203
     126:	f9 67       	ori	r31, 0x79	; 121
     128:	6d c1       	rjmp	.+730    	; 0x404 <main+0x1a>
     12a:	1b fc       	.word	0xfc1b	; ????
     12c:	e0 e4       	ldi	r30, 0x40	; 64
     12e:	0d 47       	sbci	r16, 0x7D	; 125
     130:	fe f5       	brtc	.+126    	; 0x1b0 <__do_clear_bss+0x4>
     132:	20 e6       	ldi	r18, 0x60	; 96
     134:	b5 00       	.word	0x00b5	; ????
     136:	d0 ed       	ldi	r29, 0xD0	; 208
     138:	90 2e       	mov	r9, r16
     13a:	03 00       	.word	0x0003	; ????
     13c:	94 35       	cpi	r25, 0x54	; 84
     13e:	77 05       	cpc	r23, r7
     140:	00 80       	ld	r0, Z
     142:	84 1e       	adc	r8, r20
     144:	08 00       	.word	0x0008	; ????
     146:	00 20       	and	r0, r0
     148:	4e 0a       	sbc	r4, r30
     14a:	00 00       	nop
     14c:	00 c8       	rjmp	.-4096   	; 0xfffff14e <__eeprom_end+0xff7ef14e>
     14e:	0c 33       	cpi	r16, 0x3C	; 60
     150:	33 33       	cpi	r19, 0x33	; 51
     152:	33 0f       	add	r19, r19
     154:	98 6e       	ori	r25, 0xE8	; 232
     156:	12 83       	std	Z+2, r17	; 0x02
     158:	11 41       	sbci	r17, 0x11	; 17
     15a:	ef 8d       	ldd	r30, Y+31	; 0x1f
     15c:	21 14       	cp	r2, r1
     15e:	89 3b       	cpi	r24, 0xB9	; 185
     160:	e6 55       	subi	r30, 0x56	; 86
     162:	16 cf       	rjmp	.-468    	; 0xffffff90 <__eeprom_end+0xff7eff90>
     164:	fe e6       	ldi	r31, 0x6E	; 110
     166:	db 18       	sub	r13, r11
     168:	d1 84       	ldd	r13, Z+9	; 0x09
     16a:	4b 38       	cpi	r20, 0x8B	; 139
     16c:	1b f7       	brvc	.-58     	; 0x134 <__trampolines_end+0xa8>
     16e:	7c 1d       	adc	r23, r12
     170:	90 1d       	adc	r25, r0
     172:	a4 bb       	out	0x14, r26	; 20
     174:	e4 24       	eor	r14, r4
     176:	20 32       	cpi	r18, 0x20	; 32
     178:	84 72       	andi	r24, 0x24	; 36
     17a:	5e 22       	and	r5, r30
     17c:	81 00       	.word	0x0081	; ????
     17e:	c9 f1       	breq	.+114    	; 0x1f2 <_LCD_InNibble+0x6>
     180:	24 ec       	ldi	r18, 0xC4	; 196
     182:	a1 e5       	ldi	r26, 0x51	; 81
     184:	3d 27       	eor	r19, r29

00000186 <__ctors_end>:
     186:	11 24       	eor	r1, r1
     188:	1f be       	out	0x3f, r1	; 63
     18a:	cf ef       	ldi	r28, 0xFF	; 255
     18c:	d0 e1       	ldi	r29, 0x10	; 16
     18e:	de bf       	out	0x3e, r29	; 62
     190:	cd bf       	out	0x3d, r28	; 61

00000192 <__do_copy_data>:
     192:	11 e0       	ldi	r17, 0x01	; 1
     194:	a0 e0       	ldi	r26, 0x00	; 0
     196:	b1 e0       	ldi	r27, 0x01	; 1
     198:	e4 e5       	ldi	r30, 0x54	; 84
     19a:	f1 e1       	ldi	r31, 0x11	; 17
     19c:	00 e0       	ldi	r16, 0x00	; 0
     19e:	0b bf       	out	0x3b, r16	; 59
     1a0:	02 c0       	rjmp	.+4      	; 0x1a6 <__do_copy_data+0x14>
     1a2:	07 90       	elpm	r0, Z+
     1a4:	0d 92       	st	X+, r0
     1a6:	a8 33       	cpi	r26, 0x38	; 56
     1a8:	b1 07       	cpc	r27, r17
     1aa:	d9 f7       	brne	.-10     	; 0x1a2 <__do_copy_data+0x10>

000001ac <__do_clear_bss>:
     1ac:	21 e0       	ldi	r18, 0x01	; 1
     1ae:	a8 e3       	ldi	r26, 0x38	; 56
     1b0:	b1 e0       	ldi	r27, 0x01	; 1
     1b2:	01 c0       	rjmp	.+2      	; 0x1b6 <.do_clear_bss_start>

000001b4 <.do_clear_bss_loop>:
     1b4:	1d 92       	st	X+, r1

000001b6 <.do_clear_bss_start>:
     1b6:	a0 3a       	cpi	r26, 0xA0	; 160
     1b8:	b2 07       	cpc	r27, r18
     1ba:	e1 f7       	brne	.-8      	; 0x1b4 <.do_clear_bss_loop>
     1bc:	16 d1       	rcall	.+556    	; 0x3ea <main>
     1be:	c8 c7       	rjmp	.+3984   	; 0x1150 <_exit>

000001c0 <__bad_interrupt>:
     1c0:	1f cf       	rjmp	.-450    	; 0x0 <__vectors>

000001c2 <_LCD_OutNibble>:
	#else
		//round up by default
		__ticks_dc = (uint32_t)(ceil(fabs(__tmp)));
	#endif

	__builtin_avr_delay_cycles(__ticks_dc);
     1c2:	80 ff       	sbrs	r24, 0
     1c4:	02 c0       	rjmp	.+4      	; 0x1ca <_LCD_OutNibble+0x8>
     1c6:	94 9a       	sbi	0x12, 4	; 18
     1c8:	01 c0       	rjmp	.+2      	; 0x1cc <_LCD_OutNibble+0xa>
     1ca:	94 98       	cbi	0x12, 4	; 18
     1cc:	81 ff       	sbrs	r24, 1
     1ce:	02 c0       	rjmp	.+4      	; 0x1d4 <_LCD_OutNibble+0x12>
     1d0:	95 9a       	sbi	0x12, 5	; 18
     1d2:	01 c0       	rjmp	.+2      	; 0x1d6 <_LCD_OutNibble+0x14>
     1d4:	95 98       	cbi	0x12, 5	; 18
     1d6:	82 ff       	sbrs	r24, 2
     1d8:	02 c0       	rjmp	.+4      	; 0x1de <_LCD_OutNibble+0x1c>
     1da:	96 9a       	sbi	0x12, 6	; 18
     1dc:	01 c0       	rjmp	.+2      	; 0x1e0 <_LCD_OutNibble+0x1e>
     1de:	96 98       	cbi	0x12, 6	; 18
     1e0:	83 ff       	sbrs	r24, 3
     1e2:	02 c0       	rjmp	.+4      	; 0x1e8 <_LCD_OutNibble+0x26>
     1e4:	97 9a       	sbi	0x12, 7	; 18
     1e6:	08 95       	ret
     1e8:	97 98       	cbi	0x12, 7	; 18
     1ea:	08 95       	ret

000001ec <_LCD_InNibble>:
     1ec:	80 b3       	in	r24, 0x10	; 16
     1ee:	82 95       	swap	r24
     1f0:	81 70       	andi	r24, 0x01	; 1
     1f2:	85 99       	sbic	0x10, 5	; 16
     1f4:	82 60       	ori	r24, 0x02	; 2
     1f6:	86 99       	sbic	0x10, 6	; 16
     1f8:	84 60       	ori	r24, 0x04	; 4
     1fa:	87 99       	sbic	0x10, 7	; 16
     1fc:	88 60       	ori	r24, 0x08	; 8
     1fe:	08 95       	ret

00000200 <_LCD_Read>:
     200:	cf 93       	push	r28
     202:	df 93       	push	r29
     204:	8c 98       	cbi	0x11, 4	; 17
     206:	8d 98       	cbi	0x11, 5	; 17
     208:	8e 98       	cbi	0x11, 6	; 17
     20a:	8f 98       	cbi	0x11, 7	; 17
     20c:	d9 9a       	sbi	0x1b, 1	; 27
     20e:	da 9a       	sbi	0x1b, 2	; 27
     210:	ed df       	rcall	.-38     	; 0x1ec <_LCD_InNibble>
     212:	90 e1       	ldi	r25, 0x10	; 16
     214:	89 9f       	mul	r24, r25
     216:	e0 01       	movw	r28, r0
     218:	11 24       	eor	r1, r1
     21a:	da 98       	cbi	0x1b, 2	; 27
     21c:	da 9a       	sbi	0x1b, 2	; 27
     21e:	e6 df       	rcall	.-52     	; 0x1ec <_LCD_InNibble>
     220:	da 98       	cbi	0x1b, 2	; 27
     222:	8c 2b       	or	r24, r28
     224:	df 91       	pop	r29
     226:	cf 91       	pop	r28
     228:	08 95       	ret

0000022a <LCD_ReadStatus>:
     22a:	d8 98       	cbi	0x1b, 0	; 27
     22c:	e9 cf       	rjmp	.-46     	; 0x200 <_LCD_Read>
     22e:	08 95       	ret

00000230 <_LCD_Write>:
     230:	cf 93       	push	r28
     232:	c8 2f       	mov	r28, r24
     234:	8c 9a       	sbi	0x11, 4	; 17
     236:	8d 9a       	sbi	0x11, 5	; 17
     238:	8e 9a       	sbi	0x11, 6	; 17
     23a:	8f 9a       	sbi	0x11, 7	; 17
     23c:	d9 98       	cbi	0x1b, 1	; 27
     23e:	da 9a       	sbi	0x1b, 2	; 27
     240:	82 95       	swap	r24
     242:	8f 70       	andi	r24, 0x0F	; 15
     244:	be df       	rcall	.-132    	; 0x1c2 <_LCD_OutNibble>
     246:	da 98       	cbi	0x1b, 2	; 27
     248:	da 9a       	sbi	0x1b, 2	; 27
     24a:	8c 2f       	mov	r24, r28
     24c:	ba df       	rcall	.-140    	; 0x1c2 <_LCD_OutNibble>
     24e:	da 98       	cbi	0x1b, 2	; 27
     250:	ec df       	rcall	.-40     	; 0x22a <LCD_ReadStatus>
     252:	88 23       	and	r24, r24
     254:	ec f3       	brlt	.-6      	; 0x250 <_LCD_Write+0x20>
     256:	cf 91       	pop	r28
     258:	08 95       	ret

0000025a <LCD_WriteCommand>:
     25a:	d8 98       	cbi	0x1b, 0	; 27
     25c:	e9 cf       	rjmp	.-46     	; 0x230 <_LCD_Write>
     25e:	08 95       	ret

00000260 <LCD_WriteData>:
     260:	d8 9a       	sbi	0x1b, 0	; 27
     262:	e6 cf       	rjmp	.-52     	; 0x230 <_LCD_Write>
     264:	08 95       	ret

00000266 <LCD_WriteText>:
     266:	cf 93       	push	r28
     268:	df 93       	push	r29
     26a:	ec 01       	movw	r28, r24
     26c:	88 81       	ld	r24, Y
     26e:	88 23       	and	r24, r24
     270:	29 f0       	breq	.+10     	; 0x27c <LCD_WriteText+0x16>
     272:	21 96       	adiw	r28, 0x01	; 1
     274:	f5 df       	rcall	.-22     	; 0x260 <LCD_WriteData>
     276:	89 91       	ld	r24, Y+
     278:	81 11       	cpse	r24, r1
     27a:	fc cf       	rjmp	.-8      	; 0x274 <LCD_WriteText+0xe>
     27c:	df 91       	pop	r29
     27e:	cf 91       	pop	r28
     280:	08 95       	ret

00000282 <LCD_GoTo>:
     282:	90 e4       	ldi	r25, 0x40	; 64
     284:	69 9f       	mul	r22, r25
     286:	80 0d       	add	r24, r0
     288:	11 24       	eor	r1, r1
     28a:	80 68       	ori	r24, 0x80	; 128
     28c:	e6 cf       	rjmp	.-52     	; 0x25a <LCD_WriteCommand>
     28e:	08 95       	ret

00000290 <LCD_Initalize>:
//
// Procedura inicjalizacji kontrolera HD44780.
//
//-------------------------------------------------------------------------------------------------
void LCD_Initalize(void)
{
     290:	cf 93       	push	r28
	unsigned char i;
	LCD_DB4_DIR |= LCD_DB4; // Konfiguracja kierunku pracy wyprowadzeñ
     292:	8c 9a       	sbi	0x11, 4	; 17
	LCD_DB5_DIR |= LCD_DB5; //
     294:	8d 9a       	sbi	0x11, 5	; 17
	LCD_DB6_DIR |= LCD_DB6; //
     296:	8e 9a       	sbi	0x11, 6	; 17
	LCD_DB7_DIR |= LCD_DB7; //
     298:	8f 9a       	sbi	0x11, 7	; 17
	LCD_E_DIR 	|= LCD_E;   //
     29a:	d2 9a       	sbi	0x1a, 2	; 26
	LCD_RS_DIR 	|= LCD_RS;  //
     29c:	d0 9a       	sbi	0x1a, 0	; 26
	LCD_RW_DIR 	|= LCD_RW;  //
     29e:	d1 9a       	sbi	0x1a, 1	; 26
     2a0:	85 ea       	ldi	r24, 0xA5	; 165
     2a2:	9e e0       	ldi	r25, 0x0E	; 14
     2a4:	01 97       	sbiw	r24, 0x01	; 1
     2a6:	f1 f7       	brne	.-4      	; 0x2a4 <LCD_Initalize+0x14>
     2a8:	00 c0       	rjmp	.+0      	; 0x2aa <LCD_Initalize+0x1a>
     2aa:	00 00       	nop
	_delay_ms(15); // oczekiwanie na ustalibizowanie siê napiecia zasilajacego
	LCD_RS_PORT &= ~LCD_RS; // wyzerowanie linii RS
     2ac:	d8 98       	cbi	0x1b, 0	; 27
	LCD_E_PORT &= ~LCD_E;  // wyzerowanie linii E
     2ae:	da 98       	cbi	0x1b, 2	; 27
	LCD_RW_PORT &= ~LCD_RW;
     2b0:	d9 98       	cbi	0x1b, 1	; 27
     2b2:	c3 e0       	ldi	r28, 0x03	; 3
	for(i = 0; i < 3; i++) // trzykrotne powtórzenie bloku instrukcji
	{
		LCD_E_PORT |= LCD_E; //  E = 1
     2b4:	da 9a       	sbi	0x1b, 2	; 27
		_LCD_OutNibble(0x03); // tryb 8-bitowy
     2b6:	83 e0       	ldi	r24, 0x03	; 3
     2b8:	84 df       	rcall	.-248    	; 0x1c2 <_LCD_OutNibble>
		LCD_E_PORT &= ~LCD_E; // E = 0
     2ba:	da 98       	cbi	0x1b, 2	; 27
     2bc:	81 ee       	ldi	r24, 0xE1	; 225
     2be:	94 e0       	ldi	r25, 0x04	; 4
     2c0:	01 97       	sbiw	r24, 0x01	; 1
     2c2:	f1 f7       	brne	.-4      	; 0x2c0 <LCD_Initalize+0x30>
     2c4:	00 c0       	rjmp	.+0      	; 0x2c6 <LCD_Initalize+0x36>
     2c6:	00 00       	nop
     2c8:	c1 50       	subi	r28, 0x01	; 1
	LCD_RW_DIR 	|= LCD_RW;  //
	_delay_ms(15); // oczekiwanie na ustalibizowanie siê napiecia zasilajacego
	LCD_RS_PORT &= ~LCD_RS; // wyzerowanie linii RS
	LCD_E_PORT &= ~LCD_E;  // wyzerowanie linii E
	LCD_RW_PORT &= ~LCD_RW;
	for(i = 0; i < 3; i++) // trzykrotne powtórzenie bloku instrukcji
     2ca:	a1 f7       	brne	.-24     	; 0x2b4 <LCD_Initalize+0x24>
		_LCD_OutNibble(0x03); // tryb 8-bitowy
		LCD_E_PORT &= ~LCD_E; // E = 0
		_delay_ms(5); // czekaj 5ms
	}

	LCD_E_PORT |= LCD_E; // E = 1
     2cc:	da 9a       	sbi	0x1b, 2	; 27
	_LCD_OutNibble(0x02); // tryb 4-bitowy
     2ce:	82 e0       	ldi	r24, 0x02	; 2
     2d0:	78 df       	rcall	.-272    	; 0x1c2 <_LCD_OutNibble>
	LCD_E_PORT &= ~LCD_E; // E = 0
     2d2:	da 98       	cbi	0x1b, 2	; 27
     2d4:	89 ef       	ldi	r24, 0xF9	; 249
     2d6:	90 e0       	ldi	r25, 0x00	; 0
     2d8:	01 97       	sbiw	r24, 0x01	; 1
     2da:	f1 f7       	brne	.-4      	; 0x2d8 <LCD_Initalize+0x48>
     2dc:	00 c0       	rjmp	.+0      	; 0x2de <LCD_Initalize+0x4e>
     2de:	00 00       	nop

	_delay_ms(1); // czekaj 1ms
	LCD_WriteCommand(HD44780_FUNCTION_SET | HD44780_FONT5x7 | HD44780_TWO_LINE | HD44780_4_BIT); // interfejs 4-bity, 2-linie, znak 5x7
     2e0:	88 e2       	ldi	r24, 0x28	; 40
     2e2:	bb df       	rcall	.-138    	; 0x25a <LCD_WriteCommand>
	LCD_WriteCommand(HD44780_DISPLAY_ONOFF | HD44780_DISPLAY_OFF); // wy³¹czenie wyswietlacza
     2e4:	88 e0       	ldi	r24, 0x08	; 8
     2e6:	b9 df       	rcall	.-142    	; 0x25a <LCD_WriteCommand>
	LCD_WriteCommand(HD44780_CLEAR); // czyszczenie zawartosæi pamieci DDRAM
     2e8:	81 e0       	ldi	r24, 0x01	; 1
     2ea:	b7 df       	rcall	.-146    	; 0x25a <LCD_WriteCommand>
	LCD_WriteCommand(HD44780_ENTRY_MODE | HD44780_EM_SHIFT_CURSOR | HD44780_EM_INCREMENT);// inkrementaja adresu i przesuwanie kursora
     2ec:	86 e0       	ldi	r24, 0x06	; 6
     2ee:	b5 df       	rcall	.-150    	; 0x25a <LCD_WriteCommand>
	LCD_WriteCommand(HD44780_DISPLAY_ONOFF | HD44780_DISPLAY_ON | HD44780_CURSOR_OFF | HD44780_CURSOR_NOBLINK); // w³¹cz LCD, bez kursora i mrugania
     2f0:	8c e0       	ldi	r24, 0x0C	; 12
     2f2:	b3 df       	rcall	.-154    	; 0x25a <LCD_WriteCommand>
}
     2f4:	cf 91       	pop	r28
     2f6:	08 95       	ret

000002f8 <LCD_update_time>:
		}
	}	
}
//-----funcja LCD_update_time	
void LCD_update_time()
{
     2f8:	0f 93       	push	r16
     2fa:	1f 93       	push	r17
     2fc:	cf 93       	push	r28
	unsigned char temp;
	LCD_GoTo(8,1);
     2fe:	61 e0       	ldi	r22, 0x01	; 1
     300:	88 e0       	ldi	r24, 0x08	; 8
     302:	bf df       	rcall	.-130    	; 0x282 <LCD_GoTo>
	itoa(hours/10,temp,10);
     304:	00 e0       	ldi	r16, 0x00	; 0
     306:	10 e0       	ldi	r17, 0x00	; 0
     308:	80 91 7e 01 	lds	r24, 0x017E
     30c:	cd ec       	ldi	r28, 0xCD	; 205
     30e:	8c 9f       	mul	r24, r28
     310:	81 2d       	mov	r24, r1
     312:	11 24       	eor	r1, r1
     314:	86 95       	lsr	r24
     316:	86 95       	lsr	r24
     318:	86 95       	lsr	r24
    } else if (__radix < 2 || __radix > 36) {
	*__s = 0;
	return __s;
    } else {
	extern char *__itoa_ncheck (int, char *, unsigned char);
	return __itoa_ncheck (__val, __s, __radix);
     31a:	4a e0       	ldi	r20, 0x0A	; 10
     31c:	b8 01       	movw	r22, r16
     31e:	90 e0       	ldi	r25, 0x00	; 0
     320:	7f d4       	rcall	.+2302   	; 0xc20 <__itoa_ncheck>
	LCD_WriteText(temp);
     322:	c8 01       	movw	r24, r16
     324:	a0 df       	rcall	.-192    	; 0x266 <LCD_WriteText>
	itoa(hours%10,temp,10);
     326:	80 91 7e 01 	lds	r24, 0x017E
     32a:	8c 9f       	mul	r24, r28
     32c:	91 2d       	mov	r25, r1
     32e:	11 24       	eor	r1, r1
     330:	96 95       	lsr	r25
     332:	96 95       	lsr	r25
     334:	96 95       	lsr	r25
     336:	99 0f       	add	r25, r25
     338:	29 2f       	mov	r18, r25
     33a:	22 0f       	add	r18, r18
     33c:	22 0f       	add	r18, r18
     33e:	92 0f       	add	r25, r18
     340:	89 1b       	sub	r24, r25
     342:	4a e0       	ldi	r20, 0x0A	; 10
     344:	b8 01       	movw	r22, r16
     346:	90 e0       	ldi	r25, 0x00	; 0
     348:	6b d4       	rcall	.+2262   	; 0xc20 <__itoa_ncheck>
	LCD_WriteText(temp);
     34a:	c8 01       	movw	r24, r16
     34c:	8c df       	rcall	.-232    	; 0x266 <LCD_WriteText>
	LCD_WriteText(":");
     34e:	8f e0       	ldi	r24, 0x0F	; 15
     350:	91 e0       	ldi	r25, 0x01	; 1
     352:	89 df       	rcall	.-238    	; 0x266 <LCD_WriteText>
	
	itoa(minutes/10,temp,10);
     354:	80 91 7d 01 	lds	r24, 0x017D
     358:	8c 9f       	mul	r24, r28
     35a:	81 2d       	mov	r24, r1
     35c:	11 24       	eor	r1, r1
     35e:	86 95       	lsr	r24
     360:	86 95       	lsr	r24
     362:	86 95       	lsr	r24
     364:	4a e0       	ldi	r20, 0x0A	; 10
     366:	b8 01       	movw	r22, r16
     368:	90 e0       	ldi	r25, 0x00	; 0
     36a:	5a d4       	rcall	.+2228   	; 0xc20 <__itoa_ncheck>
	LCD_WriteText(temp);
     36c:	c8 01       	movw	r24, r16
     36e:	7b df       	rcall	.-266    	; 0x266 <LCD_WriteText>
	itoa((minutes%10),temp,10);
     370:	80 91 7d 01 	lds	r24, 0x017D
     374:	8c 9f       	mul	r24, r28
     376:	91 2d       	mov	r25, r1
     378:	11 24       	eor	r1, r1
     37a:	96 95       	lsr	r25
     37c:	96 95       	lsr	r25
     37e:	96 95       	lsr	r25
     380:	99 0f       	add	r25, r25
     382:	29 2f       	mov	r18, r25
     384:	22 0f       	add	r18, r18
     386:	22 0f       	add	r18, r18
     388:	92 0f       	add	r25, r18
     38a:	89 1b       	sub	r24, r25
     38c:	4a e0       	ldi	r20, 0x0A	; 10
     38e:	b8 01       	movw	r22, r16
     390:	90 e0       	ldi	r25, 0x00	; 0
     392:	46 d4       	rcall	.+2188   	; 0xc20 <__itoa_ncheck>
	LCD_WriteText(temp);
     394:	c8 01       	movw	r24, r16
     396:	67 df       	rcall	.-306    	; 0x266 <LCD_WriteText>
	LCD_WriteText(":");
     398:	8f e0       	ldi	r24, 0x0F	; 15
     39a:	91 e0       	ldi	r25, 0x01	; 1
     39c:	64 df       	rcall	.-312    	; 0x266 <LCD_WriteText>
	
	itoa(seconds/10,temp,10);
     39e:	80 91 7c 01 	lds	r24, 0x017C
     3a2:	8c 9f       	mul	r24, r28
     3a4:	81 2d       	mov	r24, r1
     3a6:	11 24       	eor	r1, r1
     3a8:	86 95       	lsr	r24
     3aa:	86 95       	lsr	r24
     3ac:	86 95       	lsr	r24
     3ae:	4a e0       	ldi	r20, 0x0A	; 10
     3b0:	b8 01       	movw	r22, r16
     3b2:	90 e0       	ldi	r25, 0x00	; 0
     3b4:	35 d4       	rcall	.+2154   	; 0xc20 <__itoa_ncheck>
	LCD_WriteText(temp);
     3b6:	c8 01       	movw	r24, r16
     3b8:	56 df       	rcall	.-340    	; 0x266 <LCD_WriteText>
	itoa(seconds%10,temp,10);
     3ba:	80 91 7c 01 	lds	r24, 0x017C
     3be:	8c 9f       	mul	r24, r28
     3c0:	c1 2d       	mov	r28, r1
     3c2:	11 24       	eor	r1, r1
     3c4:	c6 95       	lsr	r28
     3c6:	c6 95       	lsr	r28
     3c8:	c6 95       	lsr	r28
     3ca:	cc 0f       	add	r28, r28
     3cc:	9c 2f       	mov	r25, r28
     3ce:	99 0f       	add	r25, r25
     3d0:	99 0f       	add	r25, r25
     3d2:	c9 0f       	add	r28, r25
     3d4:	8c 1b       	sub	r24, r28
     3d6:	4a e0       	ldi	r20, 0x0A	; 10
     3d8:	b8 01       	movw	r22, r16
     3da:	90 e0       	ldi	r25, 0x00	; 0
     3dc:	21 d4       	rcall	.+2114   	; 0xc20 <__itoa_ncheck>
	LCD_WriteText(temp);
     3de:	c8 01       	movw	r24, r16
     3e0:	42 df       	rcall	.-380    	; 0x266 <LCD_WriteText>
}
     3e2:	cf 91       	pop	r28
     3e4:	1f 91       	pop	r17
     3e6:	0f 91       	pop	r16
     3e8:	08 95       	ret

000003ea <main>:
int a=0, b=0, c=0, d=0, e=0;
void LCD_update_time();

int main(void)
{//petla glowna
		DDRE=0x3C; // port e jako wyjœcie 00111100
     3ea:	8c e3       	ldi	r24, 0x3C	; 60
     3ec:	82 b9       	out	0x02, r24	; 2
		PORTE=0x3C;
     3ee:	83 b9       	out	0x03, r24	; 3
		DDRB=0xFD;
     3f0:	8d ef       	ldi	r24, 0xFD	; 253
     3f2:	87 bb       	out	0x17, r24	; 23
		PORTB=0xFD;
     3f4:	88 bb       	out	0x18, r24	; 24
		DDRG=0x02;
     3f6:	82 e0       	ldi	r24, 0x02	; 2
     3f8:	80 93 64 00 	sts	0x0064, r24
		PORTG=0x02;
     3fc:	e5 e6       	ldi	r30, 0x65	; 101
     3fe:	f0 e0       	ldi	r31, 0x00	; 0
     400:	80 83       	st	Z, r24
		DDRC=0x7F;
     402:	8f e7       	ldi	r24, 0x7F	; 127
     404:	84 bb       	out	0x14, r24	; 20
		PORTC=0x7F;
     406:	85 bb       	out	0x15, r24	; 21
		//ADC
		//DDRF=0b00000000;
		PORTF=0b11111010;
     408:	8a ef       	ldi	r24, 0xFA	; 250
     40a:	80 93 62 00 	sts	0x0062, r24
		//
		PORTG = (1<<SET_HOUR | 1<<SET_MINUTE); //piny zegara
     40e:	88 e1       	ldi	r24, 0x18	; 24
     410:	80 83       	st	Z, r24
		//######## konfiguracja ADC ##############
		ADCSRA=(1<<ADEN)|(1<<ADPS0)|(1<<ADPS1)|(1<<ADPS2);
     412:	87 e8       	ldi	r24, 0x87	; 135
     414:	86 b9       	out	0x06, r24	; 6
		//ustawienie bitu ADEN=1 - wlaczenie  przetwornika A/C				
		// ustawienie preskalera na 64 // ustawienie
		// czestotliwosc taktowania przetwornika A/C, f=8Mhz/64
		
		ADMUX=(0<<REFS1)|(0<<REFS0); 	// wybor zewnetrznego napiecia odniesienia
     416:	17 b8       	out	0x07, r1	; 7
		//###########################################
		//######## konfiguracja timera0 ##############
		TIMSK |= (1<<TOIE2)|(1<<TOIE0)|1<<OCIE1A;          //Przerwanie overflow (przepe³nienie timera)//ICIE1A ---- ZEGAR
     418:	87 b7       	in	r24, 0x37	; 55
     41a:	81 65       	ori	r24, 0x51	; 81
     41c:	87 bf       	out	0x37, r24	; 55
		TCCR0 |= (1<<CS02) | (1<<CS01) | (0<<CS00); // Ÿród³em CLK, preskaler 256
     41e:	83 b7       	in	r24, 0x33	; 51
     420:	86 60       	ori	r24, 0x06	; 6
     422:	83 bf       	out	0x33, r24	; 51
		TCNT0 = timer0;//          //Pocz¹tkowa wartoœæ licznika
     424:	80 91 0e 01 	lds	r24, 0x010E
     428:	82 bf       	out	0x32, r24	; 50
		//###########################################
		//######## konfiguracja timera2 ##############
		TCCR2 |= (0<<CS22) | (1<<CS21) | (1<<CS20); // Ÿród³em CLK, preskaler 32
     42a:	85 b5       	in	r24, 0x25	; 37
     42c:	83 60       	ori	r24, 0x03	; 3
     42e:	85 bd       	out	0x25, r24	; 37
		TCNT2 = timer2;//          //Pocz¹tkowa wartoœæ licznika
     430:	80 91 0d 01 	lds	r24, 0x010D
     434:	84 bd       	out	0x24, r24	; 36
		//###########################################		
		//######## konfiguracja timera1 ##############
		TCCR1B = (1<<CS12|1<<WGM12);
     436:	8c e0       	ldi	r24, 0x0C	; 12
     438:	8e bd       	out	0x2e, r24	; 46
		OCR1A = 3053-1; //dla 8Mhz ////// 0,5 s
     43a:	8c ee       	ldi	r24, 0xEC	; 236
     43c:	9b e0       	ldi	r25, 0x0B	; 11
     43e:	9b bd       	out	0x2b, r25	; 43
     440:	8a bd       	out	0x2a, r24	; 42
		//###########################################	
		
		SK1_EN_0; //poczatkowe wartosci
     442:	c3 98       	cbi	0x18, 3	; 24
		SK1_DIR_1;
     444:	c2 9a       	sbi	0x18, 2	; 24
		SK2_EN_0;
     446:	1b 98       	cbi	0x03, 3	; 3
		SK2_DIR_1;
     448:	1c 9a       	sbi	0x03, 4	; 3
		TR_SPRE_1;
     44a:	a9 9a       	sbi	0x15, 1	; 21
		TR_WENT_1;
     44c:	a8 9a       	sbi	0x15, 0	; 21
		TR_EOWZ_ZBIO_0;
     44e:	ab 98       	cbi	0x15, 3	; 21
		TR_EOZW_SPOW_0;
     450:	ac 98       	cbi	0x15, 4	; 21
		TR_A_0;
     452:	ad 98       	cbi	0x15, 5	; 21
		TR_EOZR_TUBA_0;		
     454:	aa 98       	cbi	0x15, 2	; 21
		
		LCD_Initalize();
     456:	1c df       	rcall	.-456    	; 0x290 <LCD_Initalize>
		LCD_GoTo(0,0);
     458:	60 e0       	ldi	r22, 0x00	; 0
     45a:	80 e0       	ldi	r24, 0x00	; 0
     45c:	12 df       	rcall	.-476    	; 0x282 <LCD_GoTo>
		LCD_WriteText("Ps000rpm|Ak00.0V");
     45e:	81 e1       	ldi	r24, 0x11	; 17
     460:	91 e0       	ldi	r25, 0x01	; 1
     462:	01 df       	rcall	.-510    	; 0x266 <LCD_WriteText>
		LCD_GoTo(8,1);
     464:	61 e0       	ldi	r22, 0x01	; 1
     466:	88 e0       	ldi	r24, 0x08	; 8
     468:	0c df       	rcall	.-488    	; 0x282 <LCD_GoTo>
		LCD_WriteText(time);
     46a:	80 e0       	ldi	r24, 0x00	; 0
     46c:	91 e0       	ldi	r25, 0x01	; 1
     46e:	fb de       	rcall	.-522    	; 0x266 <LCD_WriteText>
	sei();//Globalne uruchomienie przerwañ	
     470:	78 94       	sei
	for(;;)
	{
		if(bit_is_clear(PINE, SPR_PRES))
		{
			PG1_1;
     472:	0f 2e       	mov	r0, r31
     474:	f5 e6       	ldi	r31, 0x65	; 101
     476:	ef 2e       	mov	r14, r31
     478:	f1 2c       	mov	r15, r1
     47a:	f0 2d       	mov	r31, r0
		{
			PG1_0;		
		}

		//----ZEGAR
		if(!(PING & (1<<SET_HOUR)))
     47c:	c3 e6       	ldi	r28, 0x63	; 99
     47e:	d0 e0       	ldi	r29, 0x00	; 0
			b++;
			tablicarpm[b]=pomiar_ADC0;
			tablicawol[b]=pomiar_ADC2;
			if(b==11)
			{	
				sr_ADC0=(tablicarpm[1]+tablicarpm[2]+tablicarpm[3]+tablicarpm[4]+tablicarpm[5]+tablicarpm[6]+tablicarpm[7]+tablicarpm[8]+tablicarpm[9]+tablicarpm[10]+tablicarpm[11])/b;
     480:	0f 2e       	mov	r0, r31
     482:	fc e5       	ldi	r31, 0x5C	; 92
     484:	af 2e       	mov	r10, r31
     486:	f1 e0       	ldi	r31, 0x01	; 1
     488:	bf 2e       	mov	r11, r31
     48a:	f0 2d       	mov	r31, r0
     48c:	0f 2e       	mov	r0, r31
     48e:	fb e0       	ldi	r31, 0x0B	; 11
     490:	2f 2e       	mov	r2, r31
     492:	31 2c       	mov	r3, r1
     494:	f0 2d       	mov	r31, r0
				sr_ADC2=(tablicawol[1]+tablicawol[2]+tablicawol[3]+tablicawol[4]+tablicawol[5]+tablicawol[6]+tablicawol[7]+tablicawol[8]+tablicawol[9]+tablicawol[10]+tablicawol[11])/b;
     496:	0f 2e       	mov	r0, r31
     498:	fc e3       	ldi	r31, 0x3C	; 60
     49a:	cf 2e       	mov	r12, r31
     49c:	f1 e0       	ldi	r31, 0x01	; 1
     49e:	df 2e       	mov	r13, r31
     4a0:	f0 2d       	mov	r31, r0
				timer2=sr_ADC0/5;
				obroty2=9375/((255-timer2));
     4a2:	88 24       	eor	r8, r8
     4a4:	8a 94       	dec	r8
     4a6:	91 2c       	mov	r9, r1
			ADMUX=(0<<MUX3)|(0<<MUX2)|(0<<MUX1)|(0<<MUX0);			// wyb?r kana?u ADC0
			while(ADCSRA & (1<<ADSC));						//czeka na zako?czenie konwersji
			ADCSRA |= (1<<ADSC);							//uruchomienie pojedynczej konwersji
			pomiar_ADC0=ADC;
			ADMUX=0;
			ADMUX=(0<<MUX3)|(0<<MUX2)|(1<<MUX1)|(0<<MUX0);			// wyb?r kana?u ADC1
     4a8:	68 94       	set
     4aa:	77 24       	eor	r7, r7
     4ac:	71 f8       	bld	r7, 1
			if(b==11)
			{	
				sr_ADC0=(tablicarpm[1]+tablicarpm[2]+tablicarpm[3]+tablicarpm[4]+tablicarpm[5]+tablicarpm[6]+tablicarpm[7]+tablicarpm[8]+tablicarpm[9]+tablicarpm[10]+tablicarpm[11])/b;
				sr_ADC2=(tablicawol[1]+tablicawol[2]+tablicawol[3]+tablicawol[4]+tablicawol[5]+tablicawol[6]+tablicawol[7]+tablicawol[8]+tablicawol[9]+tablicawol[10]+tablicawol[11])/b;
				timer2=sr_ADC0/5;
				obroty2=9375/((255-timer2));
     4ae:	0f 2e       	mov	r0, r31
     4b0:	ff e9       	ldi	r31, 0x9F	; 159
     4b2:	4f 2e       	mov	r4, r31
     4b4:	f4 e2       	ldi	r31, 0x24	; 36
     4b6:	5f 2e       	mov	r5, r31
     4b8:	f0 2d       	mov	r31, r0
		LCD_GoTo(8,1);
		LCD_WriteText(time);
	sei();//Globalne uruchomienie przerwañ	
	for(;;)
	{
		if(bit_is_clear(PINE, SPR_PRES))
     4ba:	0e 99       	sbic	0x01, 6	; 1
     4bc:	04 c0       	rjmp	.+8      	; 0x4c6 <main+0xdc>
		{
			PG1_1;
     4be:	d7 01       	movw	r26, r14
     4c0:	8c 91       	ld	r24, X
     4c2:	82 60       	ori	r24, 0x02	; 2
     4c4:	8c 93       	st	X, r24
		}
		if(bit_is_set(PINE, SPR_PRES))
     4c6:	0e 9b       	sbis	0x01, 6	; 1
     4c8:	04 c0       	rjmp	.+8      	; 0x4d2 <main+0xe8>
		{
			PG1_0;		
     4ca:	f7 01       	movw	r30, r14
     4cc:	80 81       	ld	r24, Z
     4ce:	8d 7f       	andi	r24, 0xFD	; 253
     4d0:	80 83       	st	Z, r24
		}

		//----ZEGAR
		if(!(PING & (1<<SET_HOUR)))
     4d2:	88 81       	ld	r24, Y
     4d4:	83 fd       	sbrc	r24, 3
     4d6:	0a c0       	rjmp	.+20     	; 0x4ec <main+0x102>
		{
			hours++;
     4d8:	80 91 7e 01 	lds	r24, 0x017E
     4dc:	8f 5f       	subi	r24, 0xFF	; 255
			if(hours > 23)
     4de:	88 31       	cpi	r24, 0x18	; 24
     4e0:	18 f4       	brcc	.+6      	; 0x4e8 <main+0xfe>
		}

		//----ZEGAR
		if(!(PING & (1<<SET_HOUR)))
		{
			hours++;
     4e2:	80 93 7e 01 	sts	0x017E, r24
     4e6:	02 c0       	rjmp	.+4      	; 0x4ec <main+0x102>
			if(hours > 23)
			hours = 0;
     4e8:	10 92 7e 01 	sts	0x017E, r1
		}
		if(!(PING & (1<<SET_MINUTE)))
     4ec:	88 81       	ld	r24, Y
     4ee:	84 fd       	sbrc	r24, 4
     4f0:	0a c0       	rjmp	.+20     	; 0x506 <main+0x11c>
		{
			minutes++;
     4f2:	80 91 7d 01 	lds	r24, 0x017D
     4f6:	8f 5f       	subi	r24, 0xFF	; 255
			if(minutes > 59)
     4f8:	8c 33       	cpi	r24, 0x3C	; 60
     4fa:	18 f4       	brcc	.+6      	; 0x502 <main+0x118>
			if(hours > 23)
			hours = 0;
		}
		if(!(PING & (1<<SET_MINUTE)))
		{
			minutes++;
     4fc:	80 93 7d 01 	sts	0x017D, r24
     500:	02 c0       	rjmp	.+4      	; 0x506 <main+0x11c>
			if(minutes > 59)
			minutes = 0;
     502:	10 92 7d 01 	sts	0x017D, r1
		}

		if (AktuADC)
     506:	80 91 09 01 	lds	r24, 0x0109
     50a:	88 23       	and	r24, r24
     50c:	c1 f0       	breq	.+48     	; 0x53e <main+0x154>
		{
			ADMUX=(0<<MUX3)|(0<<MUX2)|(0<<MUX1)|(0<<MUX0);			// wyb?r kana?u ADC0
     50e:	17 b8       	out	0x07, r1	; 7
			while(ADCSRA & (1<<ADSC));						//czeka na zako?czenie konwersji
     510:	36 99       	sbic	0x06, 6	; 6
     512:	fe cf       	rjmp	.-4      	; 0x510 <main+0x126>
			ADCSRA |= (1<<ADSC);							//uruchomienie pojedynczej konwersji
     514:	36 9a       	sbi	0x06, 6	; 6
			pomiar_ADC0=ADC;
     516:	84 b1       	in	r24, 0x04	; 4
     518:	95 b1       	in	r25, 0x05	; 5
     51a:	90 93 80 01 	sts	0x0180, r25
     51e:	80 93 7f 01 	sts	0x017F, r24
			ADMUX=0;
     522:	17 b8       	out	0x07, r1	; 7
			ADMUX=(0<<MUX3)|(0<<MUX2)|(1<<MUX1)|(0<<MUX0);			// wyb?r kana?u ADC1
     524:	77 b8       	out	0x07, r7	; 7
			while(ADCSRA & (1<<ADSC));						//czeka na zako?czenie konwersji
     526:	36 99       	sbic	0x06, 6	; 6
     528:	fe cf       	rjmp	.-4      	; 0x526 <main+0x13c>
			ADCSRA |= (1<<ADSC);							//uruchomienie pojedynczej konwersji
     52a:	36 9a       	sbi	0x06, 6	; 6
			pomiar_ADC2=ADC;
     52c:	84 b1       	in	r24, 0x04	; 4
     52e:	95 b1       	in	r25, 0x05	; 5
     530:	90 93 8e 01 	sts	0x018E, r25
     534:	80 93 8d 01 	sts	0x018D, r24
			ADMUX=0;			
     538:	17 b8       	out	0x07, r1	; 7
			AktuADC = false;
     53a:	10 92 09 01 	sts	0x0109, r1
		}

		if (ChangedADC)
     53e:	80 91 0a 01 	lds	r24, 0x010A
     542:	88 23       	and	r24, r24
     544:	09 f4       	brne	.+2      	; 0x548 <main+0x15e>
     546:	e1 c0       	rjmp	.+450    	; 0x70a <main+0x320>
		{

			b++;
     548:	20 91 3a 01 	lds	r18, 0x013A
     54c:	30 91 3b 01 	lds	r19, 0x013B
     550:	2f 5f       	subi	r18, 0xFF	; 255
     552:	3f 4f       	sbci	r19, 0xFF	; 255
     554:	30 93 3b 01 	sts	0x013B, r19
     558:	20 93 3a 01 	sts	0x013A, r18
			tablicarpm[b]=pomiar_ADC0;
     55c:	80 91 7f 01 	lds	r24, 0x017F
     560:	90 91 80 01 	lds	r25, 0x0180
     564:	a9 01       	movw	r20, r18
     566:	44 0f       	add	r20, r20
     568:	55 1f       	adc	r21, r21
     56a:	fa 01       	movw	r30, r20
     56c:	e4 5a       	subi	r30, 0xA4	; 164
     56e:	fe 4f       	sbci	r31, 0xFE	; 254
     570:	91 83       	std	Z+1, r25	; 0x01
     572:	80 83       	st	Z, r24
			tablicawol[b]=pomiar_ADC2;
     574:	80 91 8d 01 	lds	r24, 0x018D
     578:	90 91 8e 01 	lds	r25, 0x018E
     57c:	fa 01       	movw	r30, r20
     57e:	e4 5c       	subi	r30, 0xC4	; 196
     580:	fe 4f       	sbci	r31, 0xFE	; 254
     582:	91 83       	std	Z+1, r25	; 0x01
     584:	80 83       	st	Z, r24
			if(b==11)
     586:	2b 30       	cpi	r18, 0x0B	; 11
     588:	31 05       	cpc	r19, r1
     58a:	09 f0       	breq	.+2      	; 0x58e <main+0x1a4>
     58c:	bc c0       	rjmp	.+376    	; 0x706 <main+0x31c>
			{	
				sr_ADC0=(tablicarpm[1]+tablicarpm[2]+tablicarpm[3]+tablicarpm[4]+tablicarpm[5]+tablicarpm[6]+tablicarpm[7]+tablicarpm[8]+tablicarpm[9]+tablicarpm[10]+tablicarpm[11])/b;
     58e:	d5 01       	movw	r26, r10
     590:	12 96       	adiw	r26, 0x02	; 2
     592:	2d 91       	ld	r18, X+
     594:	3c 91       	ld	r19, X
     596:	13 97       	sbiw	r26, 0x03	; 3
     598:	14 96       	adiw	r26, 0x04	; 4
     59a:	8d 91       	ld	r24, X+
     59c:	9c 91       	ld	r25, X
     59e:	15 97       	sbiw	r26, 0x05	; 5
     5a0:	28 0f       	add	r18, r24
     5a2:	39 1f       	adc	r19, r25
     5a4:	16 96       	adiw	r26, 0x06	; 6
     5a6:	8d 91       	ld	r24, X+
     5a8:	9c 91       	ld	r25, X
     5aa:	17 97       	sbiw	r26, 0x07	; 7
     5ac:	28 0f       	add	r18, r24
     5ae:	39 1f       	adc	r19, r25
     5b0:	18 96       	adiw	r26, 0x08	; 8
     5b2:	8d 91       	ld	r24, X+
     5b4:	9c 91       	ld	r25, X
     5b6:	19 97       	sbiw	r26, 0x09	; 9
     5b8:	28 0f       	add	r18, r24
     5ba:	39 1f       	adc	r19, r25
     5bc:	1a 96       	adiw	r26, 0x0a	; 10
     5be:	8d 91       	ld	r24, X+
     5c0:	9c 91       	ld	r25, X
     5c2:	1b 97       	sbiw	r26, 0x0b	; 11
     5c4:	28 0f       	add	r18, r24
     5c6:	39 1f       	adc	r19, r25
     5c8:	1c 96       	adiw	r26, 0x0c	; 12
     5ca:	8d 91       	ld	r24, X+
     5cc:	9c 91       	ld	r25, X
     5ce:	1d 97       	sbiw	r26, 0x0d	; 13
     5d0:	28 0f       	add	r18, r24
     5d2:	39 1f       	adc	r19, r25
     5d4:	1e 96       	adiw	r26, 0x0e	; 14
     5d6:	8d 91       	ld	r24, X+
     5d8:	9c 91       	ld	r25, X
     5da:	1f 97       	sbiw	r26, 0x0f	; 15
     5dc:	28 0f       	add	r18, r24
     5de:	39 1f       	adc	r19, r25
     5e0:	50 96       	adiw	r26, 0x10	; 16
     5e2:	8d 91       	ld	r24, X+
     5e4:	9c 91       	ld	r25, X
     5e6:	51 97       	sbiw	r26, 0x11	; 17
     5e8:	28 0f       	add	r18, r24
     5ea:	39 1f       	adc	r19, r25
     5ec:	52 96       	adiw	r26, 0x12	; 18
     5ee:	8d 91       	ld	r24, X+
     5f0:	9c 91       	ld	r25, X
     5f2:	53 97       	sbiw	r26, 0x13	; 19
     5f4:	28 0f       	add	r18, r24
     5f6:	39 1f       	adc	r19, r25
     5f8:	54 96       	adiw	r26, 0x14	; 20
     5fa:	8d 91       	ld	r24, X+
     5fc:	9c 91       	ld	r25, X
     5fe:	55 97       	sbiw	r26, 0x15	; 21
     600:	28 0f       	add	r18, r24
     602:	39 1f       	adc	r19, r25
     604:	56 96       	adiw	r26, 0x16	; 22
     606:	8d 91       	ld	r24, X+
     608:	9c 91       	ld	r25, X
     60a:	57 97       	sbiw	r26, 0x17	; 23
     60c:	82 0f       	add	r24, r18
     60e:	93 1f       	adc	r25, r19
     610:	b1 01       	movw	r22, r2
     612:	c0 d2       	rcall	.+1408   	; 0xb94 <__divmodhi4>
     614:	fb 01       	movw	r30, r22
     616:	70 93 93 01 	sts	0x0193, r23
     61a:	60 93 92 01 	sts	0x0192, r22
				sr_ADC2=(tablicawol[1]+tablicawol[2]+tablicawol[3]+tablicawol[4]+tablicawol[5]+tablicawol[6]+tablicawol[7]+tablicawol[8]+tablicawol[9]+tablicawol[10]+tablicawol[11])/b;
     61e:	d6 01       	movw	r26, r12
     620:	12 96       	adiw	r26, 0x02	; 2
     622:	2d 91       	ld	r18, X+
     624:	3c 91       	ld	r19, X
     626:	13 97       	sbiw	r26, 0x03	; 3
     628:	14 96       	adiw	r26, 0x04	; 4
     62a:	8d 91       	ld	r24, X+
     62c:	9c 91       	ld	r25, X
     62e:	15 97       	sbiw	r26, 0x05	; 5
     630:	28 0f       	add	r18, r24
     632:	39 1f       	adc	r19, r25
     634:	16 96       	adiw	r26, 0x06	; 6
     636:	8d 91       	ld	r24, X+
     638:	9c 91       	ld	r25, X
     63a:	17 97       	sbiw	r26, 0x07	; 7
     63c:	28 0f       	add	r18, r24
     63e:	39 1f       	adc	r19, r25
     640:	18 96       	adiw	r26, 0x08	; 8
     642:	8d 91       	ld	r24, X+
     644:	9c 91       	ld	r25, X
     646:	19 97       	sbiw	r26, 0x09	; 9
     648:	28 0f       	add	r18, r24
     64a:	39 1f       	adc	r19, r25
     64c:	1a 96       	adiw	r26, 0x0a	; 10
     64e:	8d 91       	ld	r24, X+
     650:	9c 91       	ld	r25, X
     652:	1b 97       	sbiw	r26, 0x0b	; 11
     654:	28 0f       	add	r18, r24
     656:	39 1f       	adc	r19, r25
     658:	1c 96       	adiw	r26, 0x0c	; 12
     65a:	8d 91       	ld	r24, X+
     65c:	9c 91       	ld	r25, X
     65e:	1d 97       	sbiw	r26, 0x0d	; 13
     660:	28 0f       	add	r18, r24
     662:	39 1f       	adc	r19, r25
     664:	1e 96       	adiw	r26, 0x0e	; 14
     666:	8d 91       	ld	r24, X+
     668:	9c 91       	ld	r25, X
     66a:	1f 97       	sbiw	r26, 0x0f	; 15
     66c:	28 0f       	add	r18, r24
     66e:	39 1f       	adc	r19, r25
     670:	50 96       	adiw	r26, 0x10	; 16
     672:	8d 91       	ld	r24, X+
     674:	9c 91       	ld	r25, X
     676:	51 97       	sbiw	r26, 0x11	; 17
     678:	28 0f       	add	r18, r24
     67a:	39 1f       	adc	r19, r25
     67c:	52 96       	adiw	r26, 0x12	; 18
     67e:	8d 91       	ld	r24, X+
     680:	9c 91       	ld	r25, X
     682:	53 97       	sbiw	r26, 0x13	; 19
     684:	28 0f       	add	r18, r24
     686:	39 1f       	adc	r19, r25
     688:	54 96       	adiw	r26, 0x14	; 20
     68a:	8d 91       	ld	r24, X+
     68c:	9c 91       	ld	r25, X
     68e:	55 97       	sbiw	r26, 0x15	; 21
     690:	28 0f       	add	r18, r24
     692:	39 1f       	adc	r19, r25
     694:	56 96       	adiw	r26, 0x16	; 22
     696:	8d 91       	ld	r24, X+
     698:	9c 91       	ld	r25, X
     69a:	57 97       	sbiw	r26, 0x17	; 23
     69c:	82 0f       	add	r24, r18
     69e:	93 1f       	adc	r25, r19
     6a0:	b1 01       	movw	r22, r2
     6a2:	78 d2       	rcall	.+1264   	; 0xb94 <__divmodhi4>
     6a4:	9b 01       	movw	r18, r22
     6a6:	70 93 90 01 	sts	0x0190, r23
     6aa:	60 93 8f 01 	sts	0x018F, r22
				timer2=sr_ADC0/5;
     6ae:	cf 01       	movw	r24, r30
     6b0:	65 e0       	ldi	r22, 0x05	; 5
     6b2:	70 e0       	ldi	r23, 0x00	; 0
     6b4:	6f d2       	rcall	.+1246   	; 0xb94 <__divmodhi4>
     6b6:	60 93 0d 01 	sts	0x010D, r22
				obroty2=9375/((255-timer2));
     6ba:	80 91 0d 01 	lds	r24, 0x010D
     6be:	b4 01       	movw	r22, r8
     6c0:	68 1b       	sub	r22, r24
     6c2:	71 09       	sbc	r23, r1
     6c4:	c2 01       	movw	r24, r4
     6c6:	66 d2       	rcall	.+1228   	; 0xb94 <__divmodhi4>
     6c8:	70 93 8c 01 	sts	0x018C, r23
     6cc:	60 93 8b 01 	sts	0x018B, r22
				wolt=0.0138*sr_ADC2-0.0332;
     6d0:	b9 01       	movw	r22, r18
     6d2:	33 0f       	add	r19, r19
     6d4:	88 0b       	sbc	r24, r24
     6d6:	99 0b       	sbc	r25, r25
     6d8:	6e d1       	rcall	.+732    	; 0x9b6 <__floatsisf>
     6da:	25 e6       	ldi	r18, 0x65	; 101
     6dc:	39 e1       	ldi	r19, 0x19	; 25
     6de:	42 e6       	ldi	r20, 0x62	; 98
     6e0:	5c e3       	ldi	r21, 0x3C	; 60
     6e2:	f5 d1       	rcall	.+1002   	; 0xace <__mulsf3>
     6e4:	29 eb       	ldi	r18, 0xB9	; 185
     6e6:	3c ef       	ldi	r19, 0xFC	; 252
     6e8:	47 e0       	ldi	r20, 0x07	; 7
     6ea:	5d e3       	ldi	r21, 0x3D	; 61
     6ec:	fd d0       	rcall	.+506    	; 0x8e8 <__subsf3>
     6ee:	60 93 94 01 	sts	0x0194, r22
     6f2:	70 93 95 01 	sts	0x0195, r23
     6f6:	80 93 96 01 	sts	0x0196, r24
     6fa:	90 93 97 01 	sts	0x0197, r25
				b=0;					
     6fe:	10 92 3b 01 	sts	0x013B, r1
     702:	10 92 3a 01 	sts	0x013A, r1
			}
			ChangedADC = false;
     706:	10 92 0a 01 	sts	0x010A, r1
		}

		
		if(timeChanged05)
     70a:	80 91 0b 01 	lds	r24, 0x010B
     70e:	88 23       	and	r24, r24
     710:	41 f1       	breq	.+80     	; 0x762 <main+0x378>
		{		
			LCD_GoTo(0,0);
     712:	60 e0       	ldi	r22, 0x00	; 0
     714:	80 e0       	ldi	r24, 0x00	; 0
     716:	b5 dd       	rcall	.-1174   	; 0x282 <LCD_GoTo>
			LCD_WriteText("Ps00_rpm|Ak00.0V");
     718:	82 e2       	ldi	r24, 0x22	; 34
     71a:	91 e0       	ldi	r25, 0x01	; 1
     71c:	a4 dd       	rcall	.-1208   	; 0x266 <LCD_WriteText>
     71e:	4a e0       	ldi	r20, 0x0A	; 10
     720:	68 e9       	ldi	r22, 0x98	; 152
     722:	71 e0       	ldi	r23, 0x01	; 1
     724:	80 91 8b 01 	lds	r24, 0x018B
     728:	90 91 8c 01 	lds	r25, 0x018C
     72c:	79 d2       	rcall	.+1266   	; 0xc20 <__itoa_ncheck>
			itoa(obroty2, bufor, 10);
			LCD_GoTo(2,0);
     72e:	60 e0       	ldi	r22, 0x00	; 0
     730:	87 2d       	mov	r24, r7
     732:	a7 dd       	rcall	.-1202   	; 0x282 <LCD_GoTo>
			LCD_WriteText(bufor);
     734:	88 e9       	ldi	r24, 0x98	; 152
     736:	91 e0       	ldi	r25, 0x01	; 1
     738:	96 dd       	rcall	.-1236   	; 0x266 <LCD_WriteText>
			dtostrf(wolt, 3, 1, bufor2);
     73a:	60 91 94 01 	lds	r22, 0x0194
     73e:	70 91 95 01 	lds	r23, 0x0195
     742:	80 91 96 01 	lds	r24, 0x0196
     746:	90 91 97 01 	lds	r25, 0x0197
     74a:	03 e8       	ldi	r16, 0x83	; 131
     74c:	11 e0       	ldi	r17, 0x01	; 1
     74e:	21 e0       	ldi	r18, 0x01	; 1
     750:	43 e0       	ldi	r20, 0x03	; 3
     752:	47 d2       	rcall	.+1166   	; 0xbe2 <dtostrf>
			LCD_GoTo(11,0);
     754:	60 e0       	ldi	r22, 0x00	; 0
     756:	8b e0       	ldi	r24, 0x0B	; 11
     758:	94 dd       	rcall	.-1240   	; 0x282 <LCD_GoTo>
			LCD_WriteText(bufor2);
     75a:	c8 01       	movw	r24, r16
     75c:	84 dd       	rcall	.-1272   	; 0x266 <LCD_WriteText>
			timeChanged05 = false;
     75e:	10 92 0b 01 	sts	0x010B, r1
		}
		
		if(timeChanged)
     762:	80 91 0c 01 	lds	r24, 0x010C
     766:	88 23       	and	r24, r24
     768:	09 f4       	brne	.+2      	; 0x76c <main+0x382>
     76a:	a7 ce       	rjmp	.-690    	; 0x4ba <main+0xd0>
		{	
			if (obroty2<38)
     76c:	80 91 8b 01 	lds	r24, 0x018B
     770:	90 91 8c 01 	lds	r25, 0x018C
     774:	86 97       	sbiw	r24, 0x26	; 38
     776:	44 f4       	brge	.+16     	; 0x788 <main+0x39e>
			{
				SK2_EN_1;
     778:	1b 9a       	sbi	0x03, 3	; 3
				LCD_GoTo(2,0);
     77a:	60 e0       	ldi	r22, 0x00	; 0
     77c:	82 e0       	ldi	r24, 0x02	; 2
     77e:	81 dd       	rcall	.-1278   	; 0x282 <LCD_GoTo>
				LCD_WriteText("000");
     780:	83 e3       	ldi	r24, 0x33	; 51
     782:	91 e0       	ldi	r25, 0x01	; 1
     784:	70 dd       	rcall	.-1312   	; 0x266 <LCD_WriteText>
     786:	01 c0       	rjmp	.+2      	; 0x78a <main+0x3a0>
			}
			else
			{
				SK2_EN_0;
     788:	1b 98       	cbi	0x03, 3	; 3
			}			
			LCD_update_time();
     78a:	b6 dd       	rcall	.-1172   	; 0x2f8 <LCD_update_time>
			timeChanged = false;
     78c:	10 92 0c 01 	sts	0x010C, r1
     790:	8b ce       	rjmp	.-746    	; 0x4a8 <main+0xbe>

00000792 <__vector_16>:
	LCD_WriteText(temp);
}
//-----
//############ Procedura obs³ugi przerwania od przepe³nienia timera0 ############
ISR(TIMER0_OVF_vect) //SILNIK 1 %%%% POMPA
{
     792:	1f 92       	push	r1
     794:	0f 92       	push	r0
     796:	0f b6       	in	r0, 0x3f	; 63
     798:	0f 92       	push	r0
     79a:	11 24       	eor	r1, r1
     79c:	8f 93       	push	r24
     79e:	9f 93       	push	r25
	TCNT0 = timer0;			//Pocz¹tkowa wartoœæ licznika
     7a0:	80 91 0e 01 	lds	r24, 0x010E
     7a4:	82 bf       	out	0x32, r24	; 50
								//suma modulo 2 (XOR) stanu poprzedniego
	PORTE ^=(1<<PE2);			//na porcie i pinu(zmiana stanu na przeciwny)
     7a6:	93 b1       	in	r25, 0x03	; 3
     7a8:	84 e0       	ldi	r24, 0x04	; 4
     7aa:	89 27       	eor	r24, r25
     7ac:	83 b9       	out	0x03, r24	; 3
	e++;
     7ae:	80 91 38 01 	lds	r24, 0x0138
     7b2:	90 91 39 01 	lds	r25, 0x0139
     7b6:	01 96       	adiw	r24, 0x01	; 1
	if (e==100)
     7b8:	84 36       	cpi	r24, 0x64	; 100
     7ba:	91 05       	cpc	r25, r1
     7bc:	29 f0       	breq	.+10     	; 0x7c8 <__vector_16+0x36>
ISR(TIMER0_OVF_vect) //SILNIK 1 %%%% POMPA
{
	TCNT0 = timer0;			//Pocz¹tkowa wartoœæ licznika
								//suma modulo 2 (XOR) stanu poprzedniego
	PORTE ^=(1<<PE2);			//na porcie i pinu(zmiana stanu na przeciwny)
	e++;
     7be:	90 93 39 01 	sts	0x0139, r25
     7c2:	80 93 38 01 	sts	0x0138, r24
     7c6:	07 c0       	rjmp	.+14     	; 0x7d6 <__vector_16+0x44>
	if (e==100)
	{
		e=0;
     7c8:	10 92 39 01 	sts	0x0139, r1
     7cc:	10 92 38 01 	sts	0x0138, r1
		AktuADC = true;
     7d0:	81 e0       	ldi	r24, 0x01	; 1
     7d2:	80 93 09 01 	sts	0x0109, r24
	}	
}
     7d6:	9f 91       	pop	r25
     7d8:	8f 91       	pop	r24
     7da:	0f 90       	pop	r0
     7dc:	0f be       	out	0x3f, r0	; 63
     7de:	0f 90       	pop	r0
     7e0:	1f 90       	pop	r1
     7e2:	18 95       	reti

000007e4 <__vector_10>:
//##############################################################################
//############ Procedura obs³ugi przerwania od przepe³nienia timera2 ############
ISR(TIMER2_OVF_vect) //SILNIK 2 %%%% POSUW
{
     7e4:	1f 92       	push	r1
     7e6:	0f 92       	push	r0
     7e8:	0f b6       	in	r0, 0x3f	; 63
     7ea:	0f 92       	push	r0
     7ec:	11 24       	eor	r1, r1
     7ee:	8f 93       	push	r24
     7f0:	9f 93       	push	r25
	TCNT2 = timer2;			//Pocz¹tkowa wartoœæ licznika
     7f2:	80 91 0d 01 	lds	r24, 0x010D
     7f6:	84 bd       	out	0x24, r24	; 36

								//suma modulo 2 (XOR) stanu poprzedniego
	PORTE ^=(1<<PE5);			//na porcie i pinu(zmiana stanu na przeciwny) 
     7f8:	93 b1       	in	r25, 0x03	; 3
     7fa:	80 e2       	ldi	r24, 0x20	; 32
     7fc:	89 27       	eor	r24, r25
     7fe:	83 b9       	out	0x03, r24	; 3
	
}
     800:	9f 91       	pop	r25
     802:	8f 91       	pop	r24
     804:	0f 90       	pop	r0
     806:	0f be       	out	0x3f, r0	; 63
     808:	0f 90       	pop	r0
     80a:	1f 90       	pop	r1
     80c:	18 95       	reti

0000080e <__vector_12>:
//##############################################################################
//############ Procedura obs³ugi compare timera1 ############
ISR(TIMER1_COMPA_vect)
{
     80e:	1f 92       	push	r1
     810:	0f 92       	push	r0
     812:	0f b6       	in	r0, 0x3f	; 63
     814:	0f 92       	push	r0
     816:	11 24       	eor	r1, r1
     818:	8f 93       	push	r24
     81a:	9f 93       	push	r25
     81c:	af 93       	push	r26
     81e:	bf 93       	push	r27
	licz_ob1++;
     820:	80 91 81 01 	lds	r24, 0x0181
     824:	90 91 82 01 	lds	r25, 0x0182
     828:	01 96       	adiw	r24, 0x01	; 1
	if(licz_ob1==10)
     82a:	8a 30       	cpi	r24, 0x0A	; 10
     82c:	91 05       	cpc	r25, r1
     82e:	29 f0       	breq	.+10     	; 0x83a <__vector_12+0x2c>
}
//##############################################################################
//############ Procedura obs³ugi compare timera1 ############
ISR(TIMER1_COMPA_vect)
{
	licz_ob1++;
     830:	90 93 82 01 	sts	0x0182, r25
     834:	80 93 81 01 	sts	0x0181, r24
     838:	27 c0       	rjmp	.+78     	; 0x888 <__vector_12+0x7a>
	if(licz_ob1==10)
	{
	licz_ob1=0;
     83a:	10 92 82 01 	sts	0x0182, r1
     83e:	10 92 81 01 	sts	0x0181, r1
	seconds++;
     842:	80 91 7c 01 	lds	r24, 0x017C
     846:	8f 5f       	subi	r24, 0xFF	; 255
		if(seconds == 60)
     848:	8c 33       	cpi	r24, 0x3C	; 60
     84a:	19 f0       	breq	.+6      	; 0x852 <__vector_12+0x44>
{
	licz_ob1++;
	if(licz_ob1==10)
	{
	licz_ob1=0;
	seconds++;
     84c:	80 93 7c 01 	sts	0x017C, r24
     850:	07 c0       	rjmp	.+14     	; 0x860 <__vector_12+0x52>
		if(seconds == 60)
		{
		seconds = 0;
     852:	10 92 7c 01 	sts	0x017C, r1
		minutes++;
     856:	80 91 7d 01 	lds	r24, 0x017D
     85a:	8f 5f       	subi	r24, 0xFF	; 255
     85c:	80 93 7d 01 	sts	0x017D, r24
		}
		if(minutes == 60)
     860:	80 91 7d 01 	lds	r24, 0x017D
     864:	8c 33       	cpi	r24, 0x3C	; 60
     866:	39 f4       	brne	.+14     	; 0x876 <__vector_12+0x68>
		{
		minutes = 0;
     868:	10 92 7d 01 	sts	0x017D, r1
		hours++;
     86c:	80 91 7e 01 	lds	r24, 0x017E
     870:	8f 5f       	subi	r24, 0xFF	; 255
     872:	80 93 7e 01 	sts	0x017E, r24
		}
		if(hours > 23)
     876:	80 91 7e 01 	lds	r24, 0x017E
     87a:	88 31       	cpi	r24, 0x18	; 24
     87c:	10 f0       	brcs	.+4      	; 0x882 <__vector_12+0x74>
		{
		hours = 0;
     87e:	10 92 7e 01 	sts	0x017E, r1
		}
	timeChanged = true;
     882:	81 e0       	ldi	r24, 0x01	; 1
     884:	80 93 0c 01 	sts	0x010C, r24
	}
	//	
	licz_ob++;	
     888:	80 91 9c 01 	lds	r24, 0x019C
     88c:	90 91 9d 01 	lds	r25, 0x019D
     890:	a0 91 9e 01 	lds	r26, 0x019E
     894:	b0 91 9f 01 	lds	r27, 0x019F
     898:	01 96       	adiw	r24, 0x01	; 1
     89a:	a1 1d       	adc	r26, r1
     89c:	b1 1d       	adc	r27, r1
	if (licz_ob==20)
     89e:	84 31       	cpi	r24, 0x14	; 20
     8a0:	91 05       	cpc	r25, r1
     8a2:	a1 05       	cpc	r26, r1
     8a4:	b1 05       	cpc	r27, r1
     8a6:	49 f0       	breq	.+18     	; 0x8ba <__vector_12+0xac>
		hours = 0;
		}
	timeChanged = true;
	}
	//	
	licz_ob++;	
     8a8:	80 93 9c 01 	sts	0x019C, r24
     8ac:	90 93 9d 01 	sts	0x019D, r25
     8b0:	a0 93 9e 01 	sts	0x019E, r26
     8b4:	b0 93 9f 01 	sts	0x019F, r27
     8b8:	0b c0       	rjmp	.+22     	; 0x8d0 <__vector_12+0xc2>
	if (licz_ob==20)
	{
		licz_ob=0;
     8ba:	10 92 9c 01 	sts	0x019C, r1
     8be:	10 92 9d 01 	sts	0x019D, r1
     8c2:	10 92 9e 01 	sts	0x019E, r1
     8c6:	10 92 9f 01 	sts	0x019F, r1
		timeChanged05 = true;
     8ca:	81 e0       	ldi	r24, 0x01	; 1
     8cc:	80 93 0b 01 	sts	0x010B, r24
	}
	ChangedADC = true;
     8d0:	81 e0       	ldi	r24, 0x01	; 1
     8d2:	80 93 0a 01 	sts	0x010A, r24
	//
}
     8d6:	bf 91       	pop	r27
     8d8:	af 91       	pop	r26
     8da:	9f 91       	pop	r25
     8dc:	8f 91       	pop	r24
     8de:	0f 90       	pop	r0
     8e0:	0f be       	out	0x3f, r0	; 63
     8e2:	0f 90       	pop	r0
     8e4:	1f 90       	pop	r1
     8e6:	18 95       	reti

000008e8 <__subsf3>:
     8e8:	50 58       	subi	r21, 0x80	; 128

000008ea <__addsf3>:
     8ea:	bb 27       	eor	r27, r27
     8ec:	aa 27       	eor	r26, r26
     8ee:	0e d0       	rcall	.+28     	; 0x90c <__addsf3x>
     8f0:	b4 c0       	rjmp	.+360    	; 0xa5a <__fp_round>
     8f2:	a5 d0       	rcall	.+330    	; 0xa3e <__fp_pscA>
     8f4:	30 f0       	brcs	.+12     	; 0x902 <__addsf3+0x18>
     8f6:	aa d0       	rcall	.+340    	; 0xa4c <__fp_pscB>
     8f8:	20 f0       	brcs	.+8      	; 0x902 <__addsf3+0x18>
     8fa:	31 f4       	brne	.+12     	; 0x908 <__addsf3+0x1e>
     8fc:	9f 3f       	cpi	r25, 0xFF	; 255
     8fe:	11 f4       	brne	.+4      	; 0x904 <__addsf3+0x1a>
     900:	1e f4       	brtc	.+6      	; 0x908 <__addsf3+0x1e>
     902:	9a c0       	rjmp	.+308    	; 0xa38 <__fp_nan>
     904:	0e f4       	brtc	.+2      	; 0x908 <__addsf3+0x1e>
     906:	e0 95       	com	r30
     908:	e7 fb       	bst	r30, 7
     90a:	90 c0       	rjmp	.+288    	; 0xa2c <__fp_inf>

0000090c <__addsf3x>:
     90c:	e9 2f       	mov	r30, r25
     90e:	b6 d0       	rcall	.+364    	; 0xa7c <__fp_split3>
     910:	80 f3       	brcs	.-32     	; 0x8f2 <__addsf3+0x8>
     912:	ba 17       	cp	r27, r26
     914:	62 07       	cpc	r22, r18
     916:	73 07       	cpc	r23, r19
     918:	84 07       	cpc	r24, r20
     91a:	95 07       	cpc	r25, r21
     91c:	18 f0       	brcs	.+6      	; 0x924 <__addsf3x+0x18>
     91e:	71 f4       	brne	.+28     	; 0x93c <__addsf3x+0x30>
     920:	9e f5       	brtc	.+102    	; 0x988 <__addsf3x+0x7c>
     922:	ce c0       	rjmp	.+412    	; 0xac0 <__fp_zero>
     924:	0e f4       	brtc	.+2      	; 0x928 <__addsf3x+0x1c>
     926:	e0 95       	com	r30
     928:	0b 2e       	mov	r0, r27
     92a:	ba 2f       	mov	r27, r26
     92c:	a0 2d       	mov	r26, r0
     92e:	0b 01       	movw	r0, r22
     930:	b9 01       	movw	r22, r18
     932:	90 01       	movw	r18, r0
     934:	0c 01       	movw	r0, r24
     936:	ca 01       	movw	r24, r20
     938:	a0 01       	movw	r20, r0
     93a:	11 24       	eor	r1, r1
     93c:	ff 27       	eor	r31, r31
     93e:	59 1b       	sub	r21, r25
     940:	99 f0       	breq	.+38     	; 0x968 <__addsf3x+0x5c>
     942:	59 3f       	cpi	r21, 0xF9	; 249
     944:	50 f4       	brcc	.+20     	; 0x95a <__addsf3x+0x4e>
     946:	50 3e       	cpi	r21, 0xE0	; 224
     948:	68 f1       	brcs	.+90     	; 0x9a4 <__addsf3x+0x98>
     94a:	1a 16       	cp	r1, r26
     94c:	f0 40       	sbci	r31, 0x00	; 0
     94e:	a2 2f       	mov	r26, r18
     950:	23 2f       	mov	r18, r19
     952:	34 2f       	mov	r19, r20
     954:	44 27       	eor	r20, r20
     956:	58 5f       	subi	r21, 0xF8	; 248
     958:	f3 cf       	rjmp	.-26     	; 0x940 <__addsf3x+0x34>
     95a:	46 95       	lsr	r20
     95c:	37 95       	ror	r19
     95e:	27 95       	ror	r18
     960:	a7 95       	ror	r26
     962:	f0 40       	sbci	r31, 0x00	; 0
     964:	53 95       	inc	r21
     966:	c9 f7       	brne	.-14     	; 0x95a <__addsf3x+0x4e>
     968:	7e f4       	brtc	.+30     	; 0x988 <__addsf3x+0x7c>
     96a:	1f 16       	cp	r1, r31
     96c:	ba 0b       	sbc	r27, r26
     96e:	62 0b       	sbc	r22, r18
     970:	73 0b       	sbc	r23, r19
     972:	84 0b       	sbc	r24, r20
     974:	ba f0       	brmi	.+46     	; 0x9a4 <__addsf3x+0x98>
     976:	91 50       	subi	r25, 0x01	; 1
     978:	a1 f0       	breq	.+40     	; 0x9a2 <__addsf3x+0x96>
     97a:	ff 0f       	add	r31, r31
     97c:	bb 1f       	adc	r27, r27
     97e:	66 1f       	adc	r22, r22
     980:	77 1f       	adc	r23, r23
     982:	88 1f       	adc	r24, r24
     984:	c2 f7       	brpl	.-16     	; 0x976 <__addsf3x+0x6a>
     986:	0e c0       	rjmp	.+28     	; 0x9a4 <__addsf3x+0x98>
     988:	ba 0f       	add	r27, r26
     98a:	62 1f       	adc	r22, r18
     98c:	73 1f       	adc	r23, r19
     98e:	84 1f       	adc	r24, r20
     990:	48 f4       	brcc	.+18     	; 0x9a4 <__addsf3x+0x98>
     992:	87 95       	ror	r24
     994:	77 95       	ror	r23
     996:	67 95       	ror	r22
     998:	b7 95       	ror	r27
     99a:	f7 95       	ror	r31
     99c:	9e 3f       	cpi	r25, 0xFE	; 254
     99e:	08 f0       	brcs	.+2      	; 0x9a2 <__addsf3x+0x96>
     9a0:	b3 cf       	rjmp	.-154    	; 0x908 <__addsf3+0x1e>
     9a2:	93 95       	inc	r25
     9a4:	88 0f       	add	r24, r24
     9a6:	08 f0       	brcs	.+2      	; 0x9aa <__addsf3x+0x9e>
     9a8:	99 27       	eor	r25, r25
     9aa:	ee 0f       	add	r30, r30
     9ac:	97 95       	ror	r25
     9ae:	87 95       	ror	r24
     9b0:	08 95       	ret

000009b2 <__floatunsisf>:
     9b2:	e8 94       	clt
     9b4:	09 c0       	rjmp	.+18     	; 0x9c8 <__floatsisf+0x12>

000009b6 <__floatsisf>:
     9b6:	97 fb       	bst	r25, 7
     9b8:	3e f4       	brtc	.+14     	; 0x9c8 <__floatsisf+0x12>
     9ba:	90 95       	com	r25
     9bc:	80 95       	com	r24
     9be:	70 95       	com	r23
     9c0:	61 95       	neg	r22
     9c2:	7f 4f       	sbci	r23, 0xFF	; 255
     9c4:	8f 4f       	sbci	r24, 0xFF	; 255
     9c6:	9f 4f       	sbci	r25, 0xFF	; 255
     9c8:	99 23       	and	r25, r25
     9ca:	a9 f0       	breq	.+42     	; 0x9f6 <__floatsisf+0x40>
     9cc:	f9 2f       	mov	r31, r25
     9ce:	96 e9       	ldi	r25, 0x96	; 150
     9d0:	bb 27       	eor	r27, r27
     9d2:	93 95       	inc	r25
     9d4:	f6 95       	lsr	r31
     9d6:	87 95       	ror	r24
     9d8:	77 95       	ror	r23
     9da:	67 95       	ror	r22
     9dc:	b7 95       	ror	r27
     9de:	f1 11       	cpse	r31, r1
     9e0:	f8 cf       	rjmp	.-16     	; 0x9d2 <__floatsisf+0x1c>
     9e2:	fa f4       	brpl	.+62     	; 0xa22 <__floatsisf+0x6c>
     9e4:	bb 0f       	add	r27, r27
     9e6:	11 f4       	brne	.+4      	; 0x9ec <__floatsisf+0x36>
     9e8:	60 ff       	sbrs	r22, 0
     9ea:	1b c0       	rjmp	.+54     	; 0xa22 <__floatsisf+0x6c>
     9ec:	6f 5f       	subi	r22, 0xFF	; 255
     9ee:	7f 4f       	sbci	r23, 0xFF	; 255
     9f0:	8f 4f       	sbci	r24, 0xFF	; 255
     9f2:	9f 4f       	sbci	r25, 0xFF	; 255
     9f4:	16 c0       	rjmp	.+44     	; 0xa22 <__floatsisf+0x6c>
     9f6:	88 23       	and	r24, r24
     9f8:	11 f0       	breq	.+4      	; 0x9fe <__floatsisf+0x48>
     9fa:	96 e9       	ldi	r25, 0x96	; 150
     9fc:	11 c0       	rjmp	.+34     	; 0xa20 <__floatsisf+0x6a>
     9fe:	77 23       	and	r23, r23
     a00:	21 f0       	breq	.+8      	; 0xa0a <__floatsisf+0x54>
     a02:	9e e8       	ldi	r25, 0x8E	; 142
     a04:	87 2f       	mov	r24, r23
     a06:	76 2f       	mov	r23, r22
     a08:	05 c0       	rjmp	.+10     	; 0xa14 <__floatsisf+0x5e>
     a0a:	66 23       	and	r22, r22
     a0c:	71 f0       	breq	.+28     	; 0xa2a <__floatsisf+0x74>
     a0e:	96 e8       	ldi	r25, 0x86	; 134
     a10:	86 2f       	mov	r24, r22
     a12:	70 e0       	ldi	r23, 0x00	; 0
     a14:	60 e0       	ldi	r22, 0x00	; 0
     a16:	2a f0       	brmi	.+10     	; 0xa22 <__floatsisf+0x6c>
     a18:	9a 95       	dec	r25
     a1a:	66 0f       	add	r22, r22
     a1c:	77 1f       	adc	r23, r23
     a1e:	88 1f       	adc	r24, r24
     a20:	da f7       	brpl	.-10     	; 0xa18 <__floatsisf+0x62>
     a22:	88 0f       	add	r24, r24
     a24:	96 95       	lsr	r25
     a26:	87 95       	ror	r24
     a28:	97 f9       	bld	r25, 7
     a2a:	08 95       	ret

00000a2c <__fp_inf>:
     a2c:	97 f9       	bld	r25, 7
     a2e:	9f 67       	ori	r25, 0x7F	; 127
     a30:	80 e8       	ldi	r24, 0x80	; 128
     a32:	70 e0       	ldi	r23, 0x00	; 0
     a34:	60 e0       	ldi	r22, 0x00	; 0
     a36:	08 95       	ret

00000a38 <__fp_nan>:
     a38:	9f ef       	ldi	r25, 0xFF	; 255
     a3a:	80 ec       	ldi	r24, 0xC0	; 192
     a3c:	08 95       	ret

00000a3e <__fp_pscA>:
     a3e:	00 24       	eor	r0, r0
     a40:	0a 94       	dec	r0
     a42:	16 16       	cp	r1, r22
     a44:	17 06       	cpc	r1, r23
     a46:	18 06       	cpc	r1, r24
     a48:	09 06       	cpc	r0, r25
     a4a:	08 95       	ret

00000a4c <__fp_pscB>:
     a4c:	00 24       	eor	r0, r0
     a4e:	0a 94       	dec	r0
     a50:	12 16       	cp	r1, r18
     a52:	13 06       	cpc	r1, r19
     a54:	14 06       	cpc	r1, r20
     a56:	05 06       	cpc	r0, r21
     a58:	08 95       	ret

00000a5a <__fp_round>:
     a5a:	09 2e       	mov	r0, r25
     a5c:	03 94       	inc	r0
     a5e:	00 0c       	add	r0, r0
     a60:	11 f4       	brne	.+4      	; 0xa66 <__fp_round+0xc>
     a62:	88 23       	and	r24, r24
     a64:	52 f0       	brmi	.+20     	; 0xa7a <__fp_round+0x20>
     a66:	bb 0f       	add	r27, r27
     a68:	40 f4       	brcc	.+16     	; 0xa7a <__fp_round+0x20>
     a6a:	bf 2b       	or	r27, r31
     a6c:	11 f4       	brne	.+4      	; 0xa72 <__fp_round+0x18>
     a6e:	60 ff       	sbrs	r22, 0
     a70:	04 c0       	rjmp	.+8      	; 0xa7a <__fp_round+0x20>
     a72:	6f 5f       	subi	r22, 0xFF	; 255
     a74:	7f 4f       	sbci	r23, 0xFF	; 255
     a76:	8f 4f       	sbci	r24, 0xFF	; 255
     a78:	9f 4f       	sbci	r25, 0xFF	; 255
     a7a:	08 95       	ret

00000a7c <__fp_split3>:
     a7c:	57 fd       	sbrc	r21, 7
     a7e:	90 58       	subi	r25, 0x80	; 128
     a80:	44 0f       	add	r20, r20
     a82:	55 1f       	adc	r21, r21
     a84:	59 f0       	breq	.+22     	; 0xa9c <__fp_splitA+0x10>
     a86:	5f 3f       	cpi	r21, 0xFF	; 255
     a88:	71 f0       	breq	.+28     	; 0xaa6 <__fp_splitA+0x1a>
     a8a:	47 95       	ror	r20

00000a8c <__fp_splitA>:
     a8c:	88 0f       	add	r24, r24
     a8e:	97 fb       	bst	r25, 7
     a90:	99 1f       	adc	r25, r25
     a92:	61 f0       	breq	.+24     	; 0xaac <__fp_splitA+0x20>
     a94:	9f 3f       	cpi	r25, 0xFF	; 255
     a96:	79 f0       	breq	.+30     	; 0xab6 <__fp_splitA+0x2a>
     a98:	87 95       	ror	r24
     a9a:	08 95       	ret
     a9c:	12 16       	cp	r1, r18
     a9e:	13 06       	cpc	r1, r19
     aa0:	14 06       	cpc	r1, r20
     aa2:	55 1f       	adc	r21, r21
     aa4:	f2 cf       	rjmp	.-28     	; 0xa8a <__fp_split3+0xe>
     aa6:	46 95       	lsr	r20
     aa8:	f1 df       	rcall	.-30     	; 0xa8c <__fp_splitA>
     aaa:	08 c0       	rjmp	.+16     	; 0xabc <__fp_splitA+0x30>
     aac:	16 16       	cp	r1, r22
     aae:	17 06       	cpc	r1, r23
     ab0:	18 06       	cpc	r1, r24
     ab2:	99 1f       	adc	r25, r25
     ab4:	f1 cf       	rjmp	.-30     	; 0xa98 <__fp_splitA+0xc>
     ab6:	86 95       	lsr	r24
     ab8:	71 05       	cpc	r23, r1
     aba:	61 05       	cpc	r22, r1
     abc:	08 94       	sec
     abe:	08 95       	ret

00000ac0 <__fp_zero>:
     ac0:	e8 94       	clt

00000ac2 <__fp_szero>:
     ac2:	bb 27       	eor	r27, r27
     ac4:	66 27       	eor	r22, r22
     ac6:	77 27       	eor	r23, r23
     ac8:	cb 01       	movw	r24, r22
     aca:	97 f9       	bld	r25, 7
     acc:	08 95       	ret

00000ace <__mulsf3>:
     ace:	0b d0       	rcall	.+22     	; 0xae6 <__mulsf3x>
     ad0:	c4 cf       	rjmp	.-120    	; 0xa5a <__fp_round>
     ad2:	b5 df       	rcall	.-150    	; 0xa3e <__fp_pscA>
     ad4:	28 f0       	brcs	.+10     	; 0xae0 <__mulsf3+0x12>
     ad6:	ba df       	rcall	.-140    	; 0xa4c <__fp_pscB>
     ad8:	18 f0       	brcs	.+6      	; 0xae0 <__mulsf3+0x12>
     ada:	95 23       	and	r25, r21
     adc:	09 f0       	breq	.+2      	; 0xae0 <__mulsf3+0x12>
     ade:	a6 cf       	rjmp	.-180    	; 0xa2c <__fp_inf>
     ae0:	ab cf       	rjmp	.-170    	; 0xa38 <__fp_nan>
     ae2:	11 24       	eor	r1, r1
     ae4:	ee cf       	rjmp	.-36     	; 0xac2 <__fp_szero>

00000ae6 <__mulsf3x>:
     ae6:	ca df       	rcall	.-108    	; 0xa7c <__fp_split3>
     ae8:	a0 f3       	brcs	.-24     	; 0xad2 <__mulsf3+0x4>

00000aea <__mulsf3_pse>:
     aea:	95 9f       	mul	r25, r21
     aec:	d1 f3       	breq	.-12     	; 0xae2 <__mulsf3+0x14>
     aee:	95 0f       	add	r25, r21
     af0:	50 e0       	ldi	r21, 0x00	; 0
     af2:	55 1f       	adc	r21, r21
     af4:	62 9f       	mul	r22, r18
     af6:	f0 01       	movw	r30, r0
     af8:	72 9f       	mul	r23, r18
     afa:	bb 27       	eor	r27, r27
     afc:	f0 0d       	add	r31, r0
     afe:	b1 1d       	adc	r27, r1
     b00:	63 9f       	mul	r22, r19
     b02:	aa 27       	eor	r26, r26
     b04:	f0 0d       	add	r31, r0
     b06:	b1 1d       	adc	r27, r1
     b08:	aa 1f       	adc	r26, r26
     b0a:	64 9f       	mul	r22, r20
     b0c:	66 27       	eor	r22, r22
     b0e:	b0 0d       	add	r27, r0
     b10:	a1 1d       	adc	r26, r1
     b12:	66 1f       	adc	r22, r22
     b14:	82 9f       	mul	r24, r18
     b16:	22 27       	eor	r18, r18
     b18:	b0 0d       	add	r27, r0
     b1a:	a1 1d       	adc	r26, r1
     b1c:	62 1f       	adc	r22, r18
     b1e:	73 9f       	mul	r23, r19
     b20:	b0 0d       	add	r27, r0
     b22:	a1 1d       	adc	r26, r1
     b24:	62 1f       	adc	r22, r18
     b26:	83 9f       	mul	r24, r19
     b28:	a0 0d       	add	r26, r0
     b2a:	61 1d       	adc	r22, r1
     b2c:	22 1f       	adc	r18, r18
     b2e:	74 9f       	mul	r23, r20
     b30:	33 27       	eor	r19, r19
     b32:	a0 0d       	add	r26, r0
     b34:	61 1d       	adc	r22, r1
     b36:	23 1f       	adc	r18, r19
     b38:	84 9f       	mul	r24, r20
     b3a:	60 0d       	add	r22, r0
     b3c:	21 1d       	adc	r18, r1
     b3e:	82 2f       	mov	r24, r18
     b40:	76 2f       	mov	r23, r22
     b42:	6a 2f       	mov	r22, r26
     b44:	11 24       	eor	r1, r1
     b46:	9f 57       	subi	r25, 0x7F	; 127
     b48:	50 40       	sbci	r21, 0x00	; 0
     b4a:	8a f0       	brmi	.+34     	; 0xb6e <__mulsf3_pse+0x84>
     b4c:	e1 f0       	breq	.+56     	; 0xb86 <__mulsf3_pse+0x9c>
     b4e:	88 23       	and	r24, r24
     b50:	4a f0       	brmi	.+18     	; 0xb64 <__mulsf3_pse+0x7a>
     b52:	ee 0f       	add	r30, r30
     b54:	ff 1f       	adc	r31, r31
     b56:	bb 1f       	adc	r27, r27
     b58:	66 1f       	adc	r22, r22
     b5a:	77 1f       	adc	r23, r23
     b5c:	88 1f       	adc	r24, r24
     b5e:	91 50       	subi	r25, 0x01	; 1
     b60:	50 40       	sbci	r21, 0x00	; 0
     b62:	a9 f7       	brne	.-22     	; 0xb4e <__mulsf3_pse+0x64>
     b64:	9e 3f       	cpi	r25, 0xFE	; 254
     b66:	51 05       	cpc	r21, r1
     b68:	70 f0       	brcs	.+28     	; 0xb86 <__mulsf3_pse+0x9c>
     b6a:	60 cf       	rjmp	.-320    	; 0xa2c <__fp_inf>
     b6c:	aa cf       	rjmp	.-172    	; 0xac2 <__fp_szero>
     b6e:	5f 3f       	cpi	r21, 0xFF	; 255
     b70:	ec f3       	brlt	.-6      	; 0xb6c <__mulsf3_pse+0x82>
     b72:	98 3e       	cpi	r25, 0xE8	; 232
     b74:	dc f3       	brlt	.-10     	; 0xb6c <__mulsf3_pse+0x82>
     b76:	86 95       	lsr	r24
     b78:	77 95       	ror	r23
     b7a:	67 95       	ror	r22
     b7c:	b7 95       	ror	r27
     b7e:	f7 95       	ror	r31
     b80:	e7 95       	ror	r30
     b82:	9f 5f       	subi	r25, 0xFF	; 255
     b84:	c1 f7       	brne	.-16     	; 0xb76 <__mulsf3_pse+0x8c>
     b86:	fe 2b       	or	r31, r30
     b88:	88 0f       	add	r24, r24
     b8a:	91 1d       	adc	r25, r1
     b8c:	96 95       	lsr	r25
     b8e:	87 95       	ror	r24
     b90:	97 f9       	bld	r25, 7
     b92:	08 95       	ret

00000b94 <__divmodhi4>:
     b94:	97 fb       	bst	r25, 7
     b96:	07 2e       	mov	r0, r23
     b98:	16 f4       	brtc	.+4      	; 0xb9e <__divmodhi4+0xa>
     b9a:	00 94       	com	r0
     b9c:	06 d0       	rcall	.+12     	; 0xbaa <__divmodhi4_neg1>
     b9e:	77 fd       	sbrc	r23, 7
     ba0:	08 d0       	rcall	.+16     	; 0xbb2 <__divmodhi4_neg2>
     ba2:	0b d0       	rcall	.+22     	; 0xbba <__udivmodhi4>
     ba4:	07 fc       	sbrc	r0, 7
     ba6:	05 d0       	rcall	.+10     	; 0xbb2 <__divmodhi4_neg2>
     ba8:	3e f4       	brtc	.+14     	; 0xbb8 <__divmodhi4_exit>

00000baa <__divmodhi4_neg1>:
     baa:	90 95       	com	r25
     bac:	81 95       	neg	r24
     bae:	9f 4f       	sbci	r25, 0xFF	; 255
     bb0:	08 95       	ret

00000bb2 <__divmodhi4_neg2>:
     bb2:	70 95       	com	r23
     bb4:	61 95       	neg	r22
     bb6:	7f 4f       	sbci	r23, 0xFF	; 255

00000bb8 <__divmodhi4_exit>:
     bb8:	08 95       	ret

00000bba <__udivmodhi4>:
     bba:	aa 1b       	sub	r26, r26
     bbc:	bb 1b       	sub	r27, r27
     bbe:	51 e1       	ldi	r21, 0x11	; 17
     bc0:	07 c0       	rjmp	.+14     	; 0xbd0 <__udivmodhi4_ep>

00000bc2 <__udivmodhi4_loop>:
     bc2:	aa 1f       	adc	r26, r26
     bc4:	bb 1f       	adc	r27, r27
     bc6:	a6 17       	cp	r26, r22
     bc8:	b7 07       	cpc	r27, r23
     bca:	10 f0       	brcs	.+4      	; 0xbd0 <__udivmodhi4_ep>
     bcc:	a6 1b       	sub	r26, r22
     bce:	b7 0b       	sbc	r27, r23

00000bd0 <__udivmodhi4_ep>:
     bd0:	88 1f       	adc	r24, r24
     bd2:	99 1f       	adc	r25, r25
     bd4:	5a 95       	dec	r21
     bd6:	a9 f7       	brne	.-22     	; 0xbc2 <__udivmodhi4_loop>
     bd8:	80 95       	com	r24
     bda:	90 95       	com	r25
     bdc:	bc 01       	movw	r22, r24
     bde:	cd 01       	movw	r24, r26
     be0:	08 95       	ret

00000be2 <dtostrf>:
     be2:	ef 92       	push	r14
     be4:	0f 93       	push	r16
     be6:	1f 93       	push	r17
     be8:	cf 93       	push	r28
     bea:	df 93       	push	r29
     bec:	e8 01       	movw	r28, r16
     bee:	47 fd       	sbrc	r20, 7
     bf0:	02 c0       	rjmp	.+4      	; 0xbf6 <dtostrf+0x14>
     bf2:	34 e0       	ldi	r19, 0x04	; 4
     bf4:	01 c0       	rjmp	.+2      	; 0xbf8 <dtostrf+0x16>
     bf6:	34 e1       	ldi	r19, 0x14	; 20
     bf8:	e4 2f       	mov	r30, r20
     bfa:	44 0f       	add	r20, r20
     bfc:	ff 0b       	sbc	r31, r31
     bfe:	f7 ff       	sbrs	r31, 7
     c00:	03 c0       	rjmp	.+6      	; 0xc08 <dtostrf+0x26>
     c02:	f1 95       	neg	r31
     c04:	e1 95       	neg	r30
     c06:	f1 09       	sbc	r31, r1
     c08:	e3 2e       	mov	r14, r19
     c0a:	02 2f       	mov	r16, r18
     c0c:	2e 2f       	mov	r18, r30
     c0e:	ae 01       	movw	r20, r28
     c10:	2a d0       	rcall	.+84     	; 0xc66 <dtoa_prf>
     c12:	ce 01       	movw	r24, r28
     c14:	df 91       	pop	r29
     c16:	cf 91       	pop	r28
     c18:	1f 91       	pop	r17
     c1a:	0f 91       	pop	r16
     c1c:	ef 90       	pop	r14
     c1e:	08 95       	ret

00000c20 <__itoa_ncheck>:
     c20:	bb 27       	eor	r27, r27
     c22:	4a 30       	cpi	r20, 0x0A	; 10
     c24:	31 f4       	brne	.+12     	; 0xc32 <__itoa_ncheck+0x12>
     c26:	99 23       	and	r25, r25
     c28:	22 f4       	brpl	.+8      	; 0xc32 <__itoa_ncheck+0x12>
     c2a:	bd e2       	ldi	r27, 0x2D	; 45
     c2c:	90 95       	com	r25
     c2e:	81 95       	neg	r24
     c30:	9f 4f       	sbci	r25, 0xFF	; 255
     c32:	01 c0       	rjmp	.+2      	; 0xc36 <__utoa_common>

00000c34 <__utoa_ncheck>:
     c34:	bb 27       	eor	r27, r27

00000c36 <__utoa_common>:
     c36:	fb 01       	movw	r30, r22
     c38:	55 27       	eor	r21, r21
     c3a:	aa 27       	eor	r26, r26
     c3c:	88 0f       	add	r24, r24
     c3e:	99 1f       	adc	r25, r25
     c40:	aa 1f       	adc	r26, r26
     c42:	a4 17       	cp	r26, r20
     c44:	10 f0       	brcs	.+4      	; 0xc4a <__utoa_common+0x14>
     c46:	a4 1b       	sub	r26, r20
     c48:	83 95       	inc	r24
     c4a:	50 51       	subi	r21, 0x10	; 16
     c4c:	b9 f7       	brne	.-18     	; 0xc3c <__utoa_common+0x6>
     c4e:	a0 5d       	subi	r26, 0xD0	; 208
     c50:	aa 33       	cpi	r26, 0x3A	; 58
     c52:	08 f0       	brcs	.+2      	; 0xc56 <__utoa_common+0x20>
     c54:	a9 5d       	subi	r26, 0xD9	; 217
     c56:	a1 93       	st	Z+, r26
     c58:	00 97       	sbiw	r24, 0x00	; 0
     c5a:	79 f7       	brne	.-34     	; 0xc3a <__utoa_common+0x4>
     c5c:	b1 11       	cpse	r27, r1
     c5e:	b1 93       	st	Z+, r27
     c60:	11 92       	st	Z+, r1
     c62:	cb 01       	movw	r24, r22
     c64:	65 c2       	rjmp	.+1226   	; 0x1130 <strrev>

00000c66 <dtoa_prf>:
     c66:	4f 92       	push	r4
     c68:	5f 92       	push	r5
     c6a:	6f 92       	push	r6
     c6c:	7f 92       	push	r7
     c6e:	9f 92       	push	r9
     c70:	af 92       	push	r10
     c72:	bf 92       	push	r11
     c74:	cf 92       	push	r12
     c76:	df 92       	push	r13
     c78:	ef 92       	push	r14
     c7a:	ff 92       	push	r15
     c7c:	0f 93       	push	r16
     c7e:	1f 93       	push	r17
     c80:	cf 93       	push	r28
     c82:	df 93       	push	r29
     c84:	cd b7       	in	r28, 0x3d	; 61
     c86:	de b7       	in	r29, 0x3e	; 62
     c88:	29 97       	sbiw	r28, 0x09	; 9
     c8a:	0f b6       	in	r0, 0x3f	; 63
     c8c:	f8 94       	cli
     c8e:	de bf       	out	0x3e, r29	; 62
     c90:	0f be       	out	0x3f, r0	; 63
     c92:	cd bf       	out	0x3d, r28	; 61
     c94:	6a 01       	movw	r12, r20
     c96:	12 2f       	mov	r17, r18
     c98:	b0 2e       	mov	r11, r16
     c9a:	2b e3       	ldi	r18, 0x3B	; 59
     c9c:	20 17       	cp	r18, r16
     c9e:	20 f0       	brcs	.+8      	; 0xca8 <dtoa_prf+0x42>
     ca0:	ff 24       	eor	r15, r15
     ca2:	f3 94       	inc	r15
     ca4:	f0 0e       	add	r15, r16
     ca6:	02 c0       	rjmp	.+4      	; 0xcac <dtoa_prf+0x46>
     ca8:	bc e3       	ldi	r27, 0x3C	; 60
     caa:	fb 2e       	mov	r15, r27
     cac:	0f 2d       	mov	r16, r15
     cae:	27 e0       	ldi	r18, 0x07	; 7
     cb0:	ae 01       	movw	r20, r28
     cb2:	4f 5f       	subi	r20, 0xFF	; 255
     cb4:	5f 4f       	sbci	r21, 0xFF	; 255
     cb6:	64 d1       	rcall	.+712    	; 0xf80 <__ftoa_engine>
     cb8:	ac 01       	movw	r20, r24
     cba:	89 81       	ldd	r24, Y+1	; 0x01
     cbc:	98 2f       	mov	r25, r24
     cbe:	99 70       	andi	r25, 0x09	; 9
     cc0:	91 30       	cpi	r25, 0x01	; 1
     cc2:	31 f0       	breq	.+12     	; 0xcd0 <dtoa_prf+0x6a>
     cc4:	e1 fc       	sbrc	r14, 1
     cc6:	06 c0       	rjmp	.+12     	; 0xcd4 <dtoa_prf+0x6e>
     cc8:	e0 fe       	sbrs	r14, 0
     cca:	06 c0       	rjmp	.+12     	; 0xcd8 <dtoa_prf+0x72>
     ccc:	90 e2       	ldi	r25, 0x20	; 32
     cce:	05 c0       	rjmp	.+10     	; 0xcda <dtoa_prf+0x74>
     cd0:	9d e2       	ldi	r25, 0x2D	; 45
     cd2:	03 c0       	rjmp	.+6      	; 0xcda <dtoa_prf+0x74>
     cd4:	9b e2       	ldi	r25, 0x2B	; 43
     cd6:	01 c0       	rjmp	.+2      	; 0xcda <dtoa_prf+0x74>
     cd8:	90 e0       	ldi	r25, 0x00	; 0
     cda:	ee 2d       	mov	r30, r14
     cdc:	e0 71       	andi	r30, 0x10	; 16
     cde:	83 ff       	sbrs	r24, 3
     ce0:	3c c0       	rjmp	.+120    	; 0xd5a <dtoa_prf+0xf4>
     ce2:	91 11       	cpse	r25, r1
     ce4:	02 c0       	rjmp	.+4      	; 0xcea <dtoa_prf+0x84>
     ce6:	83 e0       	ldi	r24, 0x03	; 3
     ce8:	01 c0       	rjmp	.+2      	; 0xcec <dtoa_prf+0x86>
     cea:	84 e0       	ldi	r24, 0x04	; 4
     cec:	81 17       	cp	r24, r17
     cee:	18 f4       	brcc	.+6      	; 0xcf6 <dtoa_prf+0x90>
     cf0:	21 2f       	mov	r18, r17
     cf2:	28 1b       	sub	r18, r24
     cf4:	01 c0       	rjmp	.+2      	; 0xcf8 <dtoa_prf+0x92>
     cf6:	20 e0       	ldi	r18, 0x00	; 0
     cf8:	e1 11       	cpse	r30, r1
     cfa:	0b c0       	rjmp	.+22     	; 0xd12 <dtoa_prf+0xac>
     cfc:	f6 01       	movw	r30, r12
     cfe:	82 2f       	mov	r24, r18
     d00:	30 e2       	ldi	r19, 0x20	; 32
     d02:	88 23       	and	r24, r24
     d04:	19 f0       	breq	.+6      	; 0xd0c <dtoa_prf+0xa6>
     d06:	31 93       	st	Z+, r19
     d08:	81 50       	subi	r24, 0x01	; 1
     d0a:	fb cf       	rjmp	.-10     	; 0xd02 <dtoa_prf+0x9c>
     d0c:	c2 0e       	add	r12, r18
     d0e:	d1 1c       	adc	r13, r1
     d10:	20 e0       	ldi	r18, 0x00	; 0
     d12:	99 23       	and	r25, r25
     d14:	29 f0       	breq	.+10     	; 0xd20 <dtoa_prf+0xba>
     d16:	d6 01       	movw	r26, r12
     d18:	9c 93       	st	X, r25
     d1a:	f6 01       	movw	r30, r12
     d1c:	31 96       	adiw	r30, 0x01	; 1
     d1e:	6f 01       	movw	r12, r30
     d20:	c6 01       	movw	r24, r12
     d22:	03 96       	adiw	r24, 0x03	; 3
     d24:	e2 fe       	sbrs	r14, 2
     d26:	0a c0       	rjmp	.+20     	; 0xd3c <dtoa_prf+0xd6>
     d28:	3e e4       	ldi	r19, 0x4E	; 78
     d2a:	d6 01       	movw	r26, r12
     d2c:	3c 93       	st	X, r19
     d2e:	41 e4       	ldi	r20, 0x41	; 65
     d30:	11 96       	adiw	r26, 0x01	; 1
     d32:	4c 93       	st	X, r20
     d34:	11 97       	sbiw	r26, 0x01	; 1
     d36:	12 96       	adiw	r26, 0x02	; 2
     d38:	3c 93       	st	X, r19
     d3a:	06 c0       	rjmp	.+12     	; 0xd48 <dtoa_prf+0xe2>
     d3c:	3e e6       	ldi	r19, 0x6E	; 110
     d3e:	f6 01       	movw	r30, r12
     d40:	30 83       	st	Z, r19
     d42:	41 e6       	ldi	r20, 0x61	; 97
     d44:	41 83       	std	Z+1, r20	; 0x01
     d46:	32 83       	std	Z+2, r19	; 0x02
     d48:	fc 01       	movw	r30, r24
     d4a:	32 2f       	mov	r19, r18
     d4c:	40 e2       	ldi	r20, 0x20	; 32
     d4e:	33 23       	and	r19, r19
     d50:	09 f4       	brne	.+2      	; 0xd54 <dtoa_prf+0xee>
     d52:	42 c0       	rjmp	.+132    	; 0xdd8 <dtoa_prf+0x172>
     d54:	41 93       	st	Z+, r20
     d56:	31 50       	subi	r19, 0x01	; 1
     d58:	fa cf       	rjmp	.-12     	; 0xd4e <dtoa_prf+0xe8>
     d5a:	82 ff       	sbrs	r24, 2
     d5c:	44 c0       	rjmp	.+136    	; 0xde6 <dtoa_prf+0x180>
     d5e:	91 11       	cpse	r25, r1
     d60:	02 c0       	rjmp	.+4      	; 0xd66 <dtoa_prf+0x100>
     d62:	83 e0       	ldi	r24, 0x03	; 3
     d64:	01 c0       	rjmp	.+2      	; 0xd68 <dtoa_prf+0x102>
     d66:	84 e0       	ldi	r24, 0x04	; 4
     d68:	81 17       	cp	r24, r17
     d6a:	18 f4       	brcc	.+6      	; 0xd72 <dtoa_prf+0x10c>
     d6c:	21 2f       	mov	r18, r17
     d6e:	28 1b       	sub	r18, r24
     d70:	01 c0       	rjmp	.+2      	; 0xd74 <dtoa_prf+0x10e>
     d72:	20 e0       	ldi	r18, 0x00	; 0
     d74:	e1 11       	cpse	r30, r1
     d76:	0b c0       	rjmp	.+22     	; 0xd8e <dtoa_prf+0x128>
     d78:	f6 01       	movw	r30, r12
     d7a:	82 2f       	mov	r24, r18
     d7c:	30 e2       	ldi	r19, 0x20	; 32
     d7e:	88 23       	and	r24, r24
     d80:	19 f0       	breq	.+6      	; 0xd88 <dtoa_prf+0x122>
     d82:	31 93       	st	Z+, r19
     d84:	81 50       	subi	r24, 0x01	; 1
     d86:	fb cf       	rjmp	.-10     	; 0xd7e <dtoa_prf+0x118>
     d88:	c2 0e       	add	r12, r18
     d8a:	d1 1c       	adc	r13, r1
     d8c:	20 e0       	ldi	r18, 0x00	; 0
     d8e:	99 23       	and	r25, r25
     d90:	29 f0       	breq	.+10     	; 0xd9c <dtoa_prf+0x136>
     d92:	d6 01       	movw	r26, r12
     d94:	9c 93       	st	X, r25
     d96:	f6 01       	movw	r30, r12
     d98:	31 96       	adiw	r30, 0x01	; 1
     d9a:	6f 01       	movw	r12, r30
     d9c:	c6 01       	movw	r24, r12
     d9e:	03 96       	adiw	r24, 0x03	; 3
     da0:	e2 fe       	sbrs	r14, 2
     da2:	0b c0       	rjmp	.+22     	; 0xdba <dtoa_prf+0x154>
     da4:	39 e4       	ldi	r19, 0x49	; 73
     da6:	d6 01       	movw	r26, r12
     da8:	3c 93       	st	X, r19
     daa:	3e e4       	ldi	r19, 0x4E	; 78
     dac:	11 96       	adiw	r26, 0x01	; 1
     dae:	3c 93       	st	X, r19
     db0:	11 97       	sbiw	r26, 0x01	; 1
     db2:	36 e4       	ldi	r19, 0x46	; 70
     db4:	12 96       	adiw	r26, 0x02	; 2
     db6:	3c 93       	st	X, r19
     db8:	07 c0       	rjmp	.+14     	; 0xdc8 <dtoa_prf+0x162>
     dba:	39 e6       	ldi	r19, 0x69	; 105
     dbc:	f6 01       	movw	r30, r12
     dbe:	30 83       	st	Z, r19
     dc0:	3e e6       	ldi	r19, 0x6E	; 110
     dc2:	31 83       	std	Z+1, r19	; 0x01
     dc4:	36 e6       	ldi	r19, 0x66	; 102
     dc6:	32 83       	std	Z+2, r19	; 0x02
     dc8:	fc 01       	movw	r30, r24
     dca:	32 2f       	mov	r19, r18
     dcc:	40 e2       	ldi	r20, 0x20	; 32
     dce:	33 23       	and	r19, r19
     dd0:	19 f0       	breq	.+6      	; 0xdd8 <dtoa_prf+0x172>
     dd2:	41 93       	st	Z+, r20
     dd4:	31 50       	subi	r19, 0x01	; 1
     dd6:	fb cf       	rjmp	.-10     	; 0xdce <dtoa_prf+0x168>
     dd8:	fc 01       	movw	r30, r24
     dda:	e2 0f       	add	r30, r18
     ddc:	f1 1d       	adc	r31, r1
     dde:	10 82       	st	Z, r1
     de0:	8e ef       	ldi	r24, 0xFE	; 254
     de2:	9f ef       	ldi	r25, 0xFF	; 255
     de4:	b7 c0       	rjmp	.+366    	; 0xf54 <dtoa_prf+0x2ee>
     de6:	f1 e0       	ldi	r31, 0x01	; 1
     de8:	91 11       	cpse	r25, r1
     dea:	01 c0       	rjmp	.+2      	; 0xdee <dtoa_prf+0x188>
     dec:	f0 e0       	ldi	r31, 0x00	; 0
     dee:	6f 2f       	mov	r22, r31
     df0:	70 e0       	ldi	r23, 0x00	; 0
     df2:	14 16       	cp	r1, r20
     df4:	15 06       	cpc	r1, r21
     df6:	24 f4       	brge	.+8      	; 0xe00 <dtoa_prf+0x19a>
     df8:	9a 01       	movw	r18, r20
     dfa:	2f 5f       	subi	r18, 0xFF	; 255
     dfc:	3f 4f       	sbci	r19, 0xFF	; 255
     dfe:	02 c0       	rjmp	.+4      	; 0xe04 <dtoa_prf+0x19e>
     e00:	21 e0       	ldi	r18, 0x01	; 1
     e02:	30 e0       	ldi	r19, 0x00	; 0
     e04:	26 0f       	add	r18, r22
     e06:	37 1f       	adc	r19, r23
     e08:	bb 20       	and	r11, r11
     e0a:	29 f0       	breq	.+10     	; 0xe16 <dtoa_prf+0x1b0>
     e0c:	6b 2d       	mov	r22, r11
     e0e:	70 e0       	ldi	r23, 0x00	; 0
     e10:	6f 5f       	subi	r22, 0xFF	; 255
     e12:	7f 4f       	sbci	r23, 0xFF	; 255
     e14:	02 c0       	rjmp	.+4      	; 0xe1a <dtoa_prf+0x1b4>
     e16:	60 e0       	ldi	r22, 0x00	; 0
     e18:	70 e0       	ldi	r23, 0x00	; 0
     e1a:	26 0f       	add	r18, r22
     e1c:	37 1f       	adc	r19, r23
     e1e:	61 2f       	mov	r22, r17
     e20:	70 e0       	ldi	r23, 0x00	; 0
     e22:	26 17       	cp	r18, r22
     e24:	37 07       	cpc	r19, r23
     e26:	1c f4       	brge	.+6      	; 0xe2e <dtoa_prf+0x1c8>
     e28:	12 1b       	sub	r17, r18
     e2a:	21 2f       	mov	r18, r17
     e2c:	01 c0       	rjmp	.+2      	; 0xe30 <dtoa_prf+0x1ca>
     e2e:	20 e0       	ldi	r18, 0x00	; 0
     e30:	3e 2d       	mov	r19, r14
     e32:	38 71       	andi	r19, 0x18	; 24
     e34:	59 f4       	brne	.+22     	; 0xe4c <dtoa_prf+0x1e6>
     e36:	d6 01       	movw	r26, r12
     e38:	32 2f       	mov	r19, r18
     e3a:	60 e2       	ldi	r22, 0x20	; 32
     e3c:	33 23       	and	r19, r19
     e3e:	19 f0       	breq	.+6      	; 0xe46 <dtoa_prf+0x1e0>
     e40:	6d 93       	st	X+, r22
     e42:	31 50       	subi	r19, 0x01	; 1
     e44:	fb cf       	rjmp	.-10     	; 0xe3c <dtoa_prf+0x1d6>
     e46:	c2 0e       	add	r12, r18
     e48:	d1 1c       	adc	r13, r1
     e4a:	20 e0       	ldi	r18, 0x00	; 0
     e4c:	ff 23       	and	r31, r31
     e4e:	31 f0       	breq	.+12     	; 0xe5c <dtoa_prf+0x1f6>
     e50:	d6 01       	movw	r26, r12
     e52:	9c 93       	st	X, r25
     e54:	b6 01       	movw	r22, r12
     e56:	6f 5f       	subi	r22, 0xFF	; 255
     e58:	7f 4f       	sbci	r23, 0xFF	; 255
     e5a:	6b 01       	movw	r12, r22
     e5c:	e1 11       	cpse	r30, r1
     e5e:	0b c0       	rjmp	.+22     	; 0xe76 <dtoa_prf+0x210>
     e60:	f6 01       	movw	r30, r12
     e62:	92 2f       	mov	r25, r18
     e64:	30 e3       	ldi	r19, 0x30	; 48
     e66:	99 23       	and	r25, r25
     e68:	19 f0       	breq	.+6      	; 0xe70 <dtoa_prf+0x20a>
     e6a:	31 93       	st	Z+, r19
     e6c:	91 50       	subi	r25, 0x01	; 1
     e6e:	fb cf       	rjmp	.-10     	; 0xe66 <dtoa_prf+0x200>
     e70:	c2 0e       	add	r12, r18
     e72:	d1 1c       	adc	r13, r1
     e74:	20 e0       	ldi	r18, 0x00	; 0
     e76:	9f 2d       	mov	r25, r15
     e78:	94 0f       	add	r25, r20
     e7a:	3a 81       	ldd	r19, Y+2	; 0x02
     e7c:	78 2f       	mov	r23, r24
     e7e:	70 71       	andi	r23, 0x10	; 16
     e80:	a7 2e       	mov	r10, r23
     e82:	84 ff       	sbrs	r24, 4
     e84:	03 c0       	rjmp	.+6      	; 0xe8c <dtoa_prf+0x226>
     e86:	31 33       	cpi	r19, 0x31	; 49
     e88:	09 f4       	brne	.+2      	; 0xe8c <dtoa_prf+0x226>
     e8a:	91 50       	subi	r25, 0x01	; 1
     e8c:	19 16       	cp	r1, r25
     e8e:	24 f4       	brge	.+8      	; 0xe98 <dtoa_prf+0x232>
     e90:	99 30       	cpi	r25, 0x09	; 9
     e92:	18 f0       	brcs	.+6      	; 0xe9a <dtoa_prf+0x234>
     e94:	98 e0       	ldi	r25, 0x08	; 8
     e96:	01 c0       	rjmp	.+2      	; 0xe9a <dtoa_prf+0x234>
     e98:	91 e0       	ldi	r25, 0x01	; 1
     e9a:	e4 2f       	mov	r30, r20
     e9c:	85 2f       	mov	r24, r21
     e9e:	57 ff       	sbrs	r21, 7
     ea0:	02 c0       	rjmp	.+4      	; 0xea6 <dtoa_prf+0x240>
     ea2:	e0 e0       	ldi	r30, 0x00	; 0
     ea4:	80 e0       	ldi	r24, 0x00	; 0
     ea6:	6e 2f       	mov	r22, r30
     ea8:	78 2f       	mov	r23, r24
     eaa:	e0 e0       	ldi	r30, 0x00	; 0
     eac:	f0 e0       	ldi	r31, 0x00	; 0
     eae:	ae e2       	ldi	r26, 0x2E	; 46
     eb0:	9a 2e       	mov	r9, r26
     eb2:	3a 01       	movw	r6, r20
     eb4:	69 1a       	sub	r6, r25
     eb6:	71 08       	sbc	r7, r1
     eb8:	2a 01       	movw	r4, r20
     eba:	46 1a       	sub	r4, r22
     ebc:	57 0a       	sbc	r5, r23
     ebe:	0b 2d       	mov	r16, r11
     ec0:	10 e0       	ldi	r17, 0x00	; 0
     ec2:	11 95       	neg	r17
     ec4:	01 95       	neg	r16
     ec6:	11 09       	sbc	r17, r1
     ec8:	6f 3f       	cpi	r22, 0xFF	; 255
     eca:	8f ef       	ldi	r24, 0xFF	; 255
     ecc:	78 07       	cpc	r23, r24
     ece:	29 f4       	brne	.+10     	; 0xeda <dtoa_prf+0x274>
     ed0:	d6 01       	movw	r26, r12
     ed2:	9c 92       	st	X, r9
     ed4:	c6 01       	movw	r24, r12
     ed6:	01 96       	adiw	r24, 0x01	; 1
     ed8:	6c 01       	movw	r12, r24
     eda:	46 17       	cp	r20, r22
     edc:	57 07       	cpc	r21, r23
     ede:	84 f0       	brlt	.+32     	; 0xf00 <dtoa_prf+0x29a>
     ee0:	66 16       	cp	r6, r22
     ee2:	77 06       	cpc	r7, r23
     ee4:	6c f4       	brge	.+26     	; 0xf00 <dtoa_prf+0x29a>
     ee6:	7f 01       	movw	r14, r30
     ee8:	e4 0c       	add	r14, r4
     eea:	f5 1c       	adc	r15, r5
     eec:	a1 e0       	ldi	r26, 0x01	; 1
     eee:	b0 e0       	ldi	r27, 0x00	; 0
     ef0:	ac 0f       	add	r26, r28
     ef2:	bd 1f       	adc	r27, r29
     ef4:	ea 0e       	add	r14, r26
     ef6:	fb 1e       	adc	r15, r27
     ef8:	d7 01       	movw	r26, r14
     efa:	11 96       	adiw	r26, 0x01	; 1
     efc:	bc 90       	ld	r11, X
     efe:	02 c0       	rjmp	.+4      	; 0xf04 <dtoa_prf+0x29e>
     f00:	90 e3       	ldi	r25, 0x30	; 48
     f02:	b9 2e       	mov	r11, r25
     f04:	61 50       	subi	r22, 0x01	; 1
     f06:	71 09       	sbc	r23, r1
     f08:	31 96       	adiw	r30, 0x01	; 1
     f0a:	c6 01       	movw	r24, r12
     f0c:	01 96       	adiw	r24, 0x01	; 1
     f0e:	7c 01       	movw	r14, r24
     f10:	60 17       	cp	r22, r16
     f12:	71 07       	cpc	r23, r17
     f14:	24 f0       	brlt	.+8      	; 0xf1e <dtoa_prf+0x2b8>
     f16:	d6 01       	movw	r26, r12
     f18:	bc 92       	st	X, r11
     f1a:	6c 01       	movw	r12, r24
     f1c:	d5 cf       	rjmp	.-86     	; 0xec8 <dtoa_prf+0x262>
     f1e:	64 17       	cp	r22, r20
     f20:	75 07       	cpc	r23, r21
     f22:	41 f4       	brne	.+16     	; 0xf34 <dtoa_prf+0x2ce>
     f24:	36 33       	cpi	r19, 0x36	; 54
     f26:	20 f4       	brcc	.+8      	; 0xf30 <dtoa_prf+0x2ca>
     f28:	35 33       	cpi	r19, 0x35	; 53
     f2a:	21 f4       	brne	.+8      	; 0xf34 <dtoa_prf+0x2ce>
     f2c:	a1 10       	cpse	r10, r1
     f2e:	02 c0       	rjmp	.+4      	; 0xf34 <dtoa_prf+0x2ce>
     f30:	81 e3       	ldi	r24, 0x31	; 49
     f32:	b8 2e       	mov	r11, r24
     f34:	f6 01       	movw	r30, r12
     f36:	b0 82       	st	Z, r11
     f38:	f7 01       	movw	r30, r14
     f3a:	82 2f       	mov	r24, r18
     f3c:	90 e2       	ldi	r25, 0x20	; 32
     f3e:	88 23       	and	r24, r24
     f40:	19 f0       	breq	.+6      	; 0xf48 <dtoa_prf+0x2e2>
     f42:	91 93       	st	Z+, r25
     f44:	81 50       	subi	r24, 0x01	; 1
     f46:	fb cf       	rjmp	.-10     	; 0xf3e <dtoa_prf+0x2d8>
     f48:	f7 01       	movw	r30, r14
     f4a:	e2 0f       	add	r30, r18
     f4c:	f1 1d       	adc	r31, r1
     f4e:	10 82       	st	Z, r1
     f50:	80 e0       	ldi	r24, 0x00	; 0
     f52:	90 e0       	ldi	r25, 0x00	; 0
     f54:	29 96       	adiw	r28, 0x09	; 9
     f56:	0f b6       	in	r0, 0x3f	; 63
     f58:	f8 94       	cli
     f5a:	de bf       	out	0x3e, r29	; 62
     f5c:	0f be       	out	0x3f, r0	; 63
     f5e:	cd bf       	out	0x3d, r28	; 61
     f60:	df 91       	pop	r29
     f62:	cf 91       	pop	r28
     f64:	1f 91       	pop	r17
     f66:	0f 91       	pop	r16
     f68:	ff 90       	pop	r15
     f6a:	ef 90       	pop	r14
     f6c:	df 90       	pop	r13
     f6e:	cf 90       	pop	r12
     f70:	bf 90       	pop	r11
     f72:	af 90       	pop	r10
     f74:	9f 90       	pop	r9
     f76:	7f 90       	pop	r7
     f78:	6f 90       	pop	r6
     f7a:	5f 90       	pop	r5
     f7c:	4f 90       	pop	r4
     f7e:	08 95       	ret

00000f80 <__ftoa_engine>:
     f80:	28 30       	cpi	r18, 0x08	; 8
     f82:	08 f0       	brcs	.+2      	; 0xf86 <__ftoa_engine+0x6>
     f84:	27 e0       	ldi	r18, 0x07	; 7
     f86:	33 27       	eor	r19, r19
     f88:	da 01       	movw	r26, r20
     f8a:	99 0f       	add	r25, r25
     f8c:	31 1d       	adc	r19, r1
     f8e:	87 fd       	sbrc	r24, 7
     f90:	91 60       	ori	r25, 0x01	; 1
     f92:	00 96       	adiw	r24, 0x00	; 0
     f94:	61 05       	cpc	r22, r1
     f96:	71 05       	cpc	r23, r1
     f98:	39 f4       	brne	.+14     	; 0xfa8 <__ftoa_engine+0x28>
     f9a:	32 60       	ori	r19, 0x02	; 2
     f9c:	2e 5f       	subi	r18, 0xFE	; 254
     f9e:	3d 93       	st	X+, r19
     fa0:	30 e3       	ldi	r19, 0x30	; 48
     fa2:	2a 95       	dec	r18
     fa4:	e1 f7       	brne	.-8      	; 0xf9e <__ftoa_engine+0x1e>
     fa6:	08 95       	ret
     fa8:	9f 3f       	cpi	r25, 0xFF	; 255
     faa:	30 f0       	brcs	.+12     	; 0xfb8 <__ftoa_engine+0x38>
     fac:	80 38       	cpi	r24, 0x80	; 128
     fae:	71 05       	cpc	r23, r1
     fb0:	61 05       	cpc	r22, r1
     fb2:	09 f0       	breq	.+2      	; 0xfb6 <__ftoa_engine+0x36>
     fb4:	3c 5f       	subi	r19, 0xFC	; 252
     fb6:	3c 5f       	subi	r19, 0xFC	; 252
     fb8:	3d 93       	st	X+, r19
     fba:	91 30       	cpi	r25, 0x01	; 1
     fbc:	08 f0       	brcs	.+2      	; 0xfc0 <__ftoa_engine+0x40>
     fbe:	80 68       	ori	r24, 0x80	; 128
     fc0:	91 1d       	adc	r25, r1
     fc2:	df 93       	push	r29
     fc4:	cf 93       	push	r28
     fc6:	1f 93       	push	r17
     fc8:	0f 93       	push	r16
     fca:	ff 92       	push	r15
     fcc:	ef 92       	push	r14
     fce:	19 2f       	mov	r17, r25
     fd0:	98 7f       	andi	r25, 0xF8	; 248
     fd2:	96 95       	lsr	r25
     fd4:	e9 2f       	mov	r30, r25
     fd6:	96 95       	lsr	r25
     fd8:	96 95       	lsr	r25
     fda:	e9 0f       	add	r30, r25
     fdc:	ff 27       	eor	r31, r31
     fde:	ea 51       	subi	r30, 0x1A	; 26
     fe0:	ff 4f       	sbci	r31, 0xFF	; 255
     fe2:	99 27       	eor	r25, r25
     fe4:	33 27       	eor	r19, r19
     fe6:	ee 24       	eor	r14, r14
     fe8:	ff 24       	eor	r15, r15
     fea:	a7 01       	movw	r20, r14
     fec:	e7 01       	movw	r28, r14
     fee:	05 90       	lpm	r0, Z+
     ff0:	08 94       	sec
     ff2:	07 94       	ror	r0
     ff4:	28 f4       	brcc	.+10     	; 0x1000 <__ftoa_engine+0x80>
     ff6:	36 0f       	add	r19, r22
     ff8:	e7 1e       	adc	r14, r23
     ffa:	f8 1e       	adc	r15, r24
     ffc:	49 1f       	adc	r20, r25
     ffe:	51 1d       	adc	r21, r1
    1000:	66 0f       	add	r22, r22
    1002:	77 1f       	adc	r23, r23
    1004:	88 1f       	adc	r24, r24
    1006:	99 1f       	adc	r25, r25
    1008:	06 94       	lsr	r0
    100a:	a1 f7       	brne	.-24     	; 0xff4 <__ftoa_engine+0x74>
    100c:	05 90       	lpm	r0, Z+
    100e:	07 94       	ror	r0
    1010:	28 f4       	brcc	.+10     	; 0x101c <__ftoa_engine+0x9c>
    1012:	e7 0e       	add	r14, r23
    1014:	f8 1e       	adc	r15, r24
    1016:	49 1f       	adc	r20, r25
    1018:	56 1f       	adc	r21, r22
    101a:	c1 1d       	adc	r28, r1
    101c:	77 0f       	add	r23, r23
    101e:	88 1f       	adc	r24, r24
    1020:	99 1f       	adc	r25, r25
    1022:	66 1f       	adc	r22, r22
    1024:	06 94       	lsr	r0
    1026:	a1 f7       	brne	.-24     	; 0x1010 <__ftoa_engine+0x90>
    1028:	05 90       	lpm	r0, Z+
    102a:	07 94       	ror	r0
    102c:	28 f4       	brcc	.+10     	; 0x1038 <__ftoa_engine+0xb8>
    102e:	f8 0e       	add	r15, r24
    1030:	49 1f       	adc	r20, r25
    1032:	56 1f       	adc	r21, r22
    1034:	c7 1f       	adc	r28, r23
    1036:	d1 1d       	adc	r29, r1
    1038:	88 0f       	add	r24, r24
    103a:	99 1f       	adc	r25, r25
    103c:	66 1f       	adc	r22, r22
    103e:	77 1f       	adc	r23, r23
    1040:	06 94       	lsr	r0
    1042:	a1 f7       	brne	.-24     	; 0x102c <__ftoa_engine+0xac>
    1044:	05 90       	lpm	r0, Z+
    1046:	07 94       	ror	r0
    1048:	20 f4       	brcc	.+8      	; 0x1052 <__ftoa_engine+0xd2>
    104a:	49 0f       	add	r20, r25
    104c:	56 1f       	adc	r21, r22
    104e:	c7 1f       	adc	r28, r23
    1050:	d8 1f       	adc	r29, r24
    1052:	99 0f       	add	r25, r25
    1054:	66 1f       	adc	r22, r22
    1056:	77 1f       	adc	r23, r23
    1058:	88 1f       	adc	r24, r24
    105a:	06 94       	lsr	r0
    105c:	a9 f7       	brne	.-22     	; 0x1048 <__ftoa_engine+0xc8>
    105e:	84 91       	lpm	r24, Z
    1060:	10 95       	com	r17
    1062:	17 70       	andi	r17, 0x07	; 7
    1064:	41 f0       	breq	.+16     	; 0x1076 <__ftoa_engine+0xf6>
    1066:	d6 95       	lsr	r29
    1068:	c7 95       	ror	r28
    106a:	57 95       	ror	r21
    106c:	47 95       	ror	r20
    106e:	f7 94       	ror	r15
    1070:	e7 94       	ror	r14
    1072:	1a 95       	dec	r17
    1074:	c1 f7       	brne	.-16     	; 0x1066 <__ftoa_engine+0xe6>
    1076:	ec e8       	ldi	r30, 0x8C	; 140
    1078:	f0 e0       	ldi	r31, 0x00	; 0
    107a:	68 94       	set
    107c:	15 90       	lpm	r1, Z+
    107e:	15 91       	lpm	r17, Z+
    1080:	35 91       	lpm	r19, Z+
    1082:	65 91       	lpm	r22, Z+
    1084:	95 91       	lpm	r25, Z+
    1086:	05 90       	lpm	r0, Z+
    1088:	7f e2       	ldi	r23, 0x2F	; 47
    108a:	73 95       	inc	r23
    108c:	e1 18       	sub	r14, r1
    108e:	f1 0a       	sbc	r15, r17
    1090:	43 0b       	sbc	r20, r19
    1092:	56 0b       	sbc	r21, r22
    1094:	c9 0b       	sbc	r28, r25
    1096:	d0 09       	sbc	r29, r0
    1098:	c0 f7       	brcc	.-16     	; 0x108a <__ftoa_engine+0x10a>
    109a:	e1 0c       	add	r14, r1
    109c:	f1 1e       	adc	r15, r17
    109e:	43 1f       	adc	r20, r19
    10a0:	56 1f       	adc	r21, r22
    10a2:	c9 1f       	adc	r28, r25
    10a4:	d0 1d       	adc	r29, r0
    10a6:	7e f4       	brtc	.+30     	; 0x10c6 <__ftoa_engine+0x146>
    10a8:	70 33       	cpi	r23, 0x30	; 48
    10aa:	11 f4       	brne	.+4      	; 0x10b0 <__ftoa_engine+0x130>
    10ac:	8a 95       	dec	r24
    10ae:	e6 cf       	rjmp	.-52     	; 0x107c <__ftoa_engine+0xfc>
    10b0:	e8 94       	clt
    10b2:	01 50       	subi	r16, 0x01	; 1
    10b4:	30 f0       	brcs	.+12     	; 0x10c2 <__ftoa_engine+0x142>
    10b6:	08 0f       	add	r16, r24
    10b8:	0a f4       	brpl	.+2      	; 0x10bc <__ftoa_engine+0x13c>
    10ba:	00 27       	eor	r16, r16
    10bc:	02 17       	cp	r16, r18
    10be:	08 f4       	brcc	.+2      	; 0x10c2 <__ftoa_engine+0x142>
    10c0:	20 2f       	mov	r18, r16
    10c2:	23 95       	inc	r18
    10c4:	02 2f       	mov	r16, r18
    10c6:	7a 33       	cpi	r23, 0x3A	; 58
    10c8:	28 f0       	brcs	.+10     	; 0x10d4 <__ftoa_engine+0x154>
    10ca:	79 e3       	ldi	r23, 0x39	; 57
    10cc:	7d 93       	st	X+, r23
    10ce:	2a 95       	dec	r18
    10d0:	e9 f7       	brne	.-6      	; 0x10cc <__ftoa_engine+0x14c>
    10d2:	10 c0       	rjmp	.+32     	; 0x10f4 <__ftoa_engine+0x174>
    10d4:	7d 93       	st	X+, r23
    10d6:	2a 95       	dec	r18
    10d8:	89 f6       	brne	.-94     	; 0x107c <__ftoa_engine+0xfc>
    10da:	06 94       	lsr	r0
    10dc:	97 95       	ror	r25
    10de:	67 95       	ror	r22
    10e0:	37 95       	ror	r19
    10e2:	17 95       	ror	r17
    10e4:	17 94       	ror	r1
    10e6:	e1 18       	sub	r14, r1
    10e8:	f1 0a       	sbc	r15, r17
    10ea:	43 0b       	sbc	r20, r19
    10ec:	56 0b       	sbc	r21, r22
    10ee:	c9 0b       	sbc	r28, r25
    10f0:	d0 09       	sbc	r29, r0
    10f2:	98 f0       	brcs	.+38     	; 0x111a <__stack+0x1b>
    10f4:	23 95       	inc	r18
    10f6:	7e 91       	ld	r23, -X
    10f8:	73 95       	inc	r23
    10fa:	7a 33       	cpi	r23, 0x3A	; 58
    10fc:	08 f0       	brcs	.+2      	; 0x1100 <__stack+0x1>
    10fe:	70 e3       	ldi	r23, 0x30	; 48
    1100:	7c 93       	st	X, r23
    1102:	20 13       	cpse	r18, r16
    1104:	b8 f7       	brcc	.-18     	; 0x10f4 <__ftoa_engine+0x174>
    1106:	7e 91       	ld	r23, -X
    1108:	70 61       	ori	r23, 0x10	; 16
    110a:	7d 93       	st	X+, r23
    110c:	30 f0       	brcs	.+12     	; 0x111a <__stack+0x1b>
    110e:	83 95       	inc	r24
    1110:	71 e3       	ldi	r23, 0x31	; 49
    1112:	7d 93       	st	X+, r23
    1114:	70 e3       	ldi	r23, 0x30	; 48
    1116:	2a 95       	dec	r18
    1118:	e1 f7       	brne	.-8      	; 0x1112 <__stack+0x13>
    111a:	11 24       	eor	r1, r1
    111c:	ef 90       	pop	r14
    111e:	ff 90       	pop	r15
    1120:	0f 91       	pop	r16
    1122:	1f 91       	pop	r17
    1124:	cf 91       	pop	r28
    1126:	df 91       	pop	r29
    1128:	99 27       	eor	r25, r25
    112a:	87 fd       	sbrc	r24, 7
    112c:	90 95       	com	r25
    112e:	08 95       	ret

00001130 <strrev>:
    1130:	dc 01       	movw	r26, r24
    1132:	fc 01       	movw	r30, r24
    1134:	67 2f       	mov	r22, r23
    1136:	71 91       	ld	r23, Z+
    1138:	77 23       	and	r23, r23
    113a:	e1 f7       	brne	.-8      	; 0x1134 <strrev+0x4>
    113c:	32 97       	sbiw	r30, 0x02	; 2
    113e:	04 c0       	rjmp	.+8      	; 0x1148 <strrev+0x18>
    1140:	7c 91       	ld	r23, X
    1142:	6d 93       	st	X+, r22
    1144:	70 83       	st	Z, r23
    1146:	62 91       	ld	r22, -Z
    1148:	ae 17       	cp	r26, r30
    114a:	bf 07       	cpc	r27, r31
    114c:	c8 f3       	brcs	.-14     	; 0x1140 <strrev+0x10>
    114e:	08 95       	ret

00001150 <_exit>:
    1150:	f8 94       	cli

00001152 <__stop_program>:
    1152:	ff cf       	rjmp	.-2      	; 0x1152 <__stop_program>
